; generated by ARM C/C++ Compiler, 5.02 [Build 28]
; commandline ArmCC [--list --debug -c --asm --interleave -o.\Obj\lcd.o --asm_dir=.\List\ --list_dir=.\List\ --depend=.\Obj\lcd.d --cpu=Cortex-M3 --apcs=interwork -O0 -I..\Libraries\CMSIS\CM3\CoreSupport -I..\Libraries\CMSIS\CM3\DeviceSupport\ST\STM32F10x\startup\arm -I..\Libraries\CMSIS\CM3\DeviceSupport\ST\STM32F10x -I..\Libraries\STM32F10x_StdPeriph_Driver\inc -I..\User -I..\BaseDrive -I..\ExternalDrive\Lcd -I..\ExternalDrive\Fat_spi -IC:\Keil\ARM\RV31\INC -IC:\Keil\ARM\CMSIS\Include -IC:\Keil\ARM\Inc\ST\STM32F10x -D__MICROLIB -DSTM32F10X_HD -DUSE_STDPERIPH_DRIVER --omf_browse=.\Obj\lcd.crf ..\ExternalDrive\Lcd\lcd.c]
                          THUMB

                          AREA ||.text||, CODE, READONLY, ALIGN=2

                  LCD_WriteRAM PROC
;;;561    ************************************************************************************/
;;;562    void LCD_WriteRAM(u16 RGB_Code)
000000  f04f41d8          MOV      r1,#0x6c000000
;;;563    {
;;;564      /* Write 16-bit GRAM Reg */
;;;565      LCD->LCD_RAM = RGB_Code;
000004  8048              STRH     r0,[r1,#2]
;;;566    }
000006  4770              BX       lr
;;;567    
                          ENDP

                  LCD_WriteRAM_Prepare PROC
;;;548    ************************************************************************************/
;;;549    void LCD_WriteRAM_Prepare(void)
000008  2022              MOVS     r0,#0x22
;;;550    {
;;;551      LCD->LCD_REG = R34;
00000a  f04f41d8          MOV      r1,#0x6c000000
00000e  8008              STRH     r0,[r1,#0]
;;;552    }
000010  4770              BX       lr
;;;553    
                          ENDP

                  LCD_WriteReg PROC
;;;515    ************************************************************************************/
;;;516    void LCD_WriteReg(u8 LCD_Reg, u16 LCD_RegValue)
000012  f04f42d8          MOV      r2,#0x6c000000
;;;517    {
;;;518      /* Write 16-bit Index, then Write Reg */
;;;519      LCD->LCD_REG = LCD_Reg;
000016  8010              STRH     r0,[r2,#0]
;;;520      /* Write 16-bit Reg */
;;;521      LCD->LCD_RAM = LCD_RegValue;
000018  8051              STRH     r1,[r2,#2]
;;;522    }
00001a  4770              BX       lr
;;;523    
                          ENDP

                  LCD_SetCursor PROC
;;;370    ****************************************************************************/
;;;371    void LCD_SetCursor(u8 Xpos, u16 Ypos)
00001c  b510              PUSH     {r4,lr}
;;;372    {
00001e  4603              MOV      r3,r0
000020  460c              MOV      r4,r1
;;;373     	if(DeviceCode==0x8999||DeviceCode==0x9919)
000022  48fd              LDR      r0,|L1.1048|
000024  8800              LDRH     r0,[r0,#0]  ; DeviceCode
000026  f5a04109          SUB      r1,r0,#0x8900
00002a  3999              SUBS     r1,r1,#0x99
00002c  d005              BEQ      |L1.58|
00002e  48fa              LDR      r0,|L1.1048|
000030  8800              LDRH     r0,[r0,#0]  ; DeviceCode
000032  f5a04119          SUB      r1,r0,#0x9900
000036  3919              SUBS     r1,r1,#0x19
000038  d108              BNE      |L1.76|
                  |L1.58|
;;;374    	{
;;;375    		LCD_WriteReg(0x004E, Xpos);
00003a  4619              MOV      r1,r3
00003c  204e              MOVS     r0,#0x4e
00003e  f7fffffe          BL       LCD_WriteReg
;;;376    		LCD_WriteReg(0X004F, Ypos);
000042  4621              MOV      r1,r4
000044  204f              MOVS     r0,#0x4f
000046  f7fffffe          BL       LCD_WriteReg
00004a  e007              B        |L1.92|
                  |L1.76|
;;;377    	}
;;;378    	else 
;;;379    	{
;;;380    		LCD_WriteReg(0x0020, Xpos);
00004c  4619              MOV      r1,r3
00004e  2020              MOVS     r0,#0x20
000050  f7fffffe          BL       LCD_WriteReg
;;;381    		LCD_WriteReg(0X0021, Ypos);
000054  4621              MOV      r1,r4
000056  2021              MOVS     r0,#0x21
000058  f7fffffe          BL       LCD_WriteReg
                  |L1.92|
;;;382    	}
;;;383    }
00005c  bd10              POP      {r4,pc}
;;;384    
                          ENDP

                  LCD_SetPoint PROC
;;;47     ****************************************************************************/
;;;48     void LCD_SetPoint(u16 x,u16 y,u16 point)
00005e  b570              PUSH     {r4-r6,lr}
;;;49     {
000060  4604              MOV      r4,r0
000062  460d              MOV      r5,r1
000064  4616              MOV      r6,r2
;;;50       if ( (x>240)||(y>360) ) return;
000066  2cf0              CMP      r4,#0xf0
000068  dc02              BGT      |L1.112|
00006a  f5b57fb4          CMP      r5,#0x168
00006e  dd00              BLE      |L1.114|
                  |L1.112|
;;;51     
;;;52       LCD_SetCursor(x,y);
;;;53       LCD_WriteRAM_Prepare();
;;;54       LCD_WriteRAM(point);
;;;55     }
000070  bd70              POP      {r4-r6,pc}
                  |L1.114|
000072  b2e0              UXTB     r0,r4                 ;52
000074  4629              MOV      r1,r5                 ;52
000076  f7fffffe          BL       LCD_SetCursor
00007a  f7fffffe          BL       LCD_WriteRAM_Prepare
00007e  4630              MOV      r0,r6                 ;54
000080  f7fffffe          BL       LCD_WriteRAM
000084  bf00              NOP      
000086  e7f3              B        |L1.112|
;;;56     
                          ENDP

                  LCD_PutChar PROC
;;;67     ****************************************************************************/
;;;68     void LCD_PutChar(u16 x,u16 y,u8 c,u16 charColor,u16 bkColor)
000088  e92d4ff0          PUSH     {r4-r11,lr}
;;;69     {
00008c  4606              MOV      r6,r0
00008e  460f              MOV      r7,r1
000090  4690              MOV      r8,r2
000092  4699              MOV      r9,r3
000094  f8dda024          LDR      r10,[sp,#0x24]
;;;70       u16 i=0;
000098  2400              MOVS     r4,#0
;;;71       u16 j=0;
00009a  2500              MOVS     r5,#0
;;;72       
;;;73       u16 tmp_char=0;
00009c  46a3              MOV      r11,r4
;;;74     
;;;75       for (i=0;i<24;i++)
00009e  bf00              NOP      
0000a0  e024              B        |L1.236|
                  |L1.162|
;;;76       {
;;;77         tmp_char=ASCII_Table[((c-0x20)*24)+i];	 //减去32的偏移，是因为字符表从空格开始的，参考字符表那的注释
0000a2  f1a80020          SUB      r0,r8,#0x20
0000a6  eb000040          ADD      r0,r0,r0,LSL #1
0000aa  eb0400c0          ADD      r0,r4,r0,LSL #3
0000ae  49db              LDR      r1,|L1.1052|
0000b0  f831b010          LDRH     r11,[r1,r0,LSL #1]
;;;78         for (j=0;j<16;j++)
0000b4  2500              MOVS     r5,#0
0000b6  e015              B        |L1.228|
                  |L1.184|
;;;79         {
;;;80     //      if ( (tmp_char >> 15-j) & 0x01 == 0x01)	按照上面的显示，字符是倒过来的，到这里改过来就行了
;;;81     	if ( (tmp_char >> j) & 0x01 == 0x01)
0000b8  fa4bf005          ASR      r0,r11,r5
0000bc  f0100f01          TST      r0,#1
0000c0  d007              BEQ      |L1.210|
;;;82           {
;;;83             LCD_SetPoint(x+i,y+j,charColor); // 字符颜色
0000c2  197a              ADDS     r2,r7,r5
0000c4  b291              UXTH     r1,r2
0000c6  1932              ADDS     r2,r6,r4
0000c8  b290              UXTH     r0,r2
0000ca  464a              MOV      r2,r9
0000cc  f7fffffe          BL       LCD_SetPoint
0000d0  e006              B        |L1.224|
                  |L1.210|
;;;84           }
;;;85           else
;;;86           {
;;;87             LCD_SetPoint(x+i,y+j,bkColor); // 背景颜色
0000d2  197a              ADDS     r2,r7,r5
0000d4  b291              UXTH     r1,r2
0000d6  1932              ADDS     r2,r6,r4
0000d8  b290              UXTH     r0,r2
0000da  4652              MOV      r2,r10
0000dc  f7fffffe          BL       LCD_SetPoint
                  |L1.224|
0000e0  1c68              ADDS     r0,r5,#1              ;78
0000e2  b285              UXTH     r5,r0                 ;78
                  |L1.228|
0000e4  2d10              CMP      r5,#0x10              ;78
0000e6  dbe7              BLT      |L1.184|
0000e8  1c60              ADDS     r0,r4,#1              ;75
0000ea  b284              UXTH     r4,r0                 ;75
                  |L1.236|
0000ec  2c18              CMP      r4,#0x18              ;75
0000ee  dbd8              BLT      |L1.162|
;;;88           }
;;;89         }
;;;90       }
;;;91     }
0000f0  e8bd8ff0          POP      {r4-r11,pc}
;;;92     
                          ENDP

                  LCD_DisplayStringLine PROC
;;;100    ****************************************************************************/
;;;101    void LCD_DisplayStringLine(u8 Line, u8 *ptr, u16 charColor, u16 bkColor)
0000f4  e92d43f8          PUSH     {r3-r9,lr}
;;;102    {
0000f8  4681              MOV      r9,r0
0000fa  460c              MOV      r4,r1
0000fc  4615              MOV      r5,r2
0000fe  461e              MOV      r6,r3
;;;103      u32 i = 0;
000100  2700              MOVS     r7,#0
;;;104      u16 refcolumn = 0;
000102  46b8              MOV      r8,r7
;;;105    
;;;106      /* Send the string character by character on lCD */
;;;107      while ((*ptr != 0) & (i < 40))
000104  e00c              B        |L1.288|
                  |L1.262|
;;;108      {
;;;109        /* Display one character on LCD */
;;;110    //    LCD_PutChar(refcolumn, Line, *ptr, charColor, bkColor);
;;;111    	LCD_PutChar(Line, refcolumn, *ptr, charColor, bkColor);
000106  9600              STR      r6,[sp,#0]
000108  7822              LDRB     r2,[r4,#0]
00010a  462b              MOV      r3,r5
00010c  4641              MOV      r1,r8
00010e  4648              MOV      r0,r9
000110  f7fffffe          BL       LCD_PutChar
;;;112        /* Decrement the column position by 16 */
;;;113        refcolumn += 16;
000114  f1080010          ADD      r0,r8,#0x10
000118  fa1ff880          UXTH     r8,r0
;;;114        /* Point on the next character */
;;;115        ptr++;
00011c  1c64              ADDS     r4,r4,#1
;;;116        /* Increment the character counter */
;;;117        i++;
00011e  1c7f              ADDS     r7,r7,#1
                  |L1.288|
000120  7820              LDRB     r0,[r4,#0]            ;107
000122  b108              CBZ      r0,|L1.296|
000124  2001              MOVS     r0,#1                 ;107
000126  e000              B        |L1.298|
                  |L1.296|
000128  2000              MOVS     r0,#0                 ;107
                  |L1.298|
00012a  2f28              CMP      r7,#0x28              ;107
00012c  d201              BCS      |L1.306|
00012e  2101              MOVS     r1,#1                 ;107
000130  e000              B        |L1.308|
                  |L1.306|
000132  2100              MOVS     r1,#0                 ;107
                  |L1.308|
000134  4208              TST      r0,r1                 ;107
000136  d1e6              BNE      |L1.262|
;;;118      }
;;;119    }
000138  e8bd83f8          POP      {r3-r9,pc}
;;;120    
                          ENDP

                  LCD_BGR2RGB PROC
;;;128    ****************************************************************************/
;;;129    u16 LCD_BGR2RGB(u16 c)
00013c  b530              PUSH     {r4,r5,lr}
;;;130    {
00013e  4601              MOV      r1,r0
;;;131      u16  r, g, b, rgb;
;;;132    
;;;133      b = (c>>0)  & 0x1f;
000140  f001041f          AND      r4,r1,#0x1f
;;;134      g = (c>>5)  & 0x3f;
000144  f3c11345          UBFX     r3,r1,#5,#6
;;;135      r = (c>>11) & 0x1f;
000148  0aca              LSRS     r2,r1,#11
;;;136      
;;;137      rgb =  (b<<11) + (g<<5) + (r<<0);
00014a  02e5              LSLS     r5,r4,#11
00014c  eb051543          ADD      r5,r5,r3,LSL #5
000150  4415              ADD      r5,r5,r2
000152  b2a8              UXTH     r0,r5
;;;138    
;;;139      return( rgb );
;;;140    }
000154  bd30              POP      {r4,r5,pc}
;;;141    
                          ENDP

                  LCD_Clear PROC
;;;347    ****************************************************************************/
;;;348    void LCD_Clear(u16 Color)
000156  b530              PUSH     {r4,r5,lr}
;;;349    {
000158  4604              MOV      r4,r0
;;;350      u32 index = 0;
00015a  2500              MOVS     r5,#0
;;;351      
;;;352      LCD_SetCursor(0x00, 0x00); 
00015c  2100              MOVS     r1,#0
00015e  4608              MOV      r0,r1
000160  f7fffffe          BL       LCD_SetCursor
;;;353    
;;;354      LCD_WriteRAM_Prepare(); /* Prepare to write GRAM */
000164  f7fffffe          BL       LCD_WriteRAM_Prepare
;;;355    
;;;356      for(index = 0; index < 76800; index++)
000168  bf00              NOP      
00016a  e003              B        |L1.372|
                  |L1.364|
;;;357      {
;;;358        LCD->LCD_RAM = Color;
00016c  f04f40d8          MOV      r0,#0x6c000000
000170  8044              STRH     r4,[r0,#2]
000172  1c6d              ADDS     r5,r5,#1              ;356
                  |L1.372|
000174  f5b53f96          CMP      r5,#0x12c00           ;356
000178  d3f8              BCC      |L1.364|
;;;359      }  
;;;360    }
00017a  bd30              POP      {r4,r5,pc}
;;;361    
                          ENDP

                  LCD_ReadReg PROC
;;;531    ************************************************************************************/
;;;532    u16 LCD_ReadReg(u8 LCD_Reg)
00017c  4601              MOV      r1,r0
;;;533    {
;;;534      /* Write 16-bit Index (then Read Reg) */
;;;535      LCD->LCD_REG = LCD_Reg;
00017e  f04f40d8          MOV      r0,#0x6c000000
000182  8001              STRH     r1,[r0,#0]
;;;536      LCD->LCD_RAM;
000184  8840              LDRH     r0,[r0,#2]
;;;537      /* Read 16-bit Reg */
;;;538      return (LCD->LCD_RAM);
000186  f04f40d8          MOV      r0,#0x6c000000
00018a  8840              LDRH     r0,[r0,#2]
;;;539    }
00018c  4770              BX       lr
;;;540    
                          ENDP

                  LCD_FSMCConfig PROC
;;;697    ************************************************************************************/
;;;698    void LCD_FSMCConfig(void)
00018e  b500              PUSH     {lr}
;;;699    {
000190  b097              SUB      sp,sp,#0x5c
;;;700      FSMC_NORSRAMInitTypeDef  FSMC_NORSRAMInitStructure;
;;;701      FSMC_NORSRAMTimingInitTypeDef  p;
;;;702    
;;;703    /*-- FSMC Configuration ------------------------------------------------------*/
;;;704    /*----------------------- SRAM Bank 4 ----------------------------------------*/
;;;705      /* FSMC_Bank1_NORSRAM4 configuration */
;;;706      p.FSMC_AddressSetupTime = 0;
000192  2000              MOVS     r0,#0
000194  9001              STR      r0,[sp,#4]
;;;707      p.FSMC_AddressHoldTime = 0;
000196  9002              STR      r0,[sp,#8]
;;;708      p.FSMC_DataSetupTime = 2;
000198  2002              MOVS     r0,#2
00019a  9003              STR      r0,[sp,#0xc]
;;;709      p.FSMC_BusTurnAroundDuration = 0;
00019c  2000              MOVS     r0,#0
00019e  9004              STR      r0,[sp,#0x10]
;;;710      p.FSMC_CLKDivision = 0;
0001a0  9005              STR      r0,[sp,#0x14]
;;;711      p.FSMC_DataLatency = 0;
0001a2  9006              STR      r0,[sp,#0x18]
;;;712      p.FSMC_AccessMode = FSMC_AccessMode_A;
0001a4  9007              STR      r0,[sp,#0x1c]
;;;713    
;;;714      /* Color LCD configuration ------------------------------------
;;;715         LCD configured as follow:
;;;716            - Data/Address MUX = Disable
;;;717            - Memory Type = SRAM
;;;718            - Data Width = 16bit
;;;719            - Write Operation = Enable
;;;720            - Extended Mode = Enable
;;;721            - Asynchronous Wait = Disable */
;;;722      FSMC_NORSRAMInitStructure.FSMC_Bank = FSMC_Bank1_NORSRAM4;
0001a6  2006              MOVS     r0,#6
0001a8  9008              STR      r0,[sp,#0x20]
;;;723      FSMC_NORSRAMInitStructure.FSMC_DataAddressMux = FSMC_DataAddressMux_Disable;
0001aa  2000              MOVS     r0,#0
0001ac  9009              STR      r0,[sp,#0x24]
;;;724      FSMC_NORSRAMInitStructure.FSMC_MemoryType = FSMC_MemoryType_SRAM;
0001ae  900a              STR      r0,[sp,#0x28]
;;;725      FSMC_NORSRAMInitStructure.FSMC_MemoryDataWidth = FSMC_MemoryDataWidth_16b;
0001b0  2010              MOVS     r0,#0x10
0001b2  900b              STR      r0,[sp,#0x2c]
;;;726      FSMC_NORSRAMInitStructure.FSMC_BurstAccessMode = FSMC_BurstAccessMode_Disable;
0001b4  2000              MOVS     r0,#0
0001b6  900c              STR      r0,[sp,#0x30]
;;;727      FSMC_NORSRAMInitStructure.FSMC_WaitSignalPolarity = FSMC_WaitSignalPolarity_Low;
0001b8  900e              STR      r0,[sp,#0x38]
;;;728      FSMC_NORSRAMInitStructure.FSMC_WrapMode = FSMC_WrapMode_Disable;
0001ba  900f              STR      r0,[sp,#0x3c]
;;;729      FSMC_NORSRAMInitStructure.FSMC_WaitSignalActive = FSMC_WaitSignalActive_BeforeWaitState;
0001bc  9010              STR      r0,[sp,#0x40]
;;;730      FSMC_NORSRAMInitStructure.FSMC_WriteOperation = FSMC_WriteOperation_Enable;
0001be  f44f5080          MOV      r0,#0x1000
0001c2  9011              STR      r0,[sp,#0x44]
;;;731      FSMC_NORSRAMInitStructure.FSMC_WaitSignal = FSMC_WaitSignal_Disable;
0001c4  2000              MOVS     r0,#0
0001c6  9012              STR      r0,[sp,#0x48]
;;;732      FSMC_NORSRAMInitStructure.FSMC_ExtendedMode = FSMC_ExtendedMode_Disable;
0001c8  9013              STR      r0,[sp,#0x4c]
;;;733      FSMC_NORSRAMInitStructure.FSMC_WriteBurst = FSMC_WriteBurst_Disable;
0001ca  9014              STR      r0,[sp,#0x50]
;;;734      FSMC_NORSRAMInitStructure.FSMC_ReadWriteTimingStruct = &p;
0001cc  a801              ADD      r0,sp,#4
0001ce  9015              STR      r0,[sp,#0x54]
;;;735      FSMC_NORSRAMInitStructure.FSMC_WriteTimingStruct = &p;
0001d0  9016              STR      r0,[sp,#0x58]
;;;736    
;;;737      FSMC_NORSRAMInit(&FSMC_NORSRAMInitStructure);  
0001d2  a808              ADD      r0,sp,#0x20
0001d4  f7fffffe          BL       FSMC_NORSRAMInit
;;;738    
;;;739      /* BANK 4 (of NOR/SRAM Bank 1~4) is enabled */
;;;740      FSMC_NORSRAMCmd(FSMC_Bank1_NORSRAM4, ENABLE);
0001d8  2101              MOVS     r1,#1
0001da  2006              MOVS     r0,#6
0001dc  f7fffffe          BL       FSMC_NORSRAMCmd
;;;741    }
0001e0  b017              ADD      sp,sp,#0x5c
0001e2  bd00              POP      {pc}
                          ENDP

                  LCD_CtrlLinesConfig PROC
;;;644    ************************************************************************************/
;;;645    void LCD_CtrlLinesConfig(void)
0001e4  b508              PUSH     {r3,lr}
;;;646    {
;;;647      GPIO_InitTypeDef GPIO_InitStructure;
;;;648    
;;;649      /* Enable FSMC, GPIOD, GPIOE, GPIOF, GPIOG and AFIO clocks */
;;;650      RCC_AHBPeriphClockCmd(RCC_AHBPeriph_FSMC, ENABLE);
0001e6  2101              MOVS     r1,#1
0001e8  0208              LSLS     r0,r1,#8
0001ea  f7fffffe          BL       RCC_AHBPeriphClockCmd
;;;651    
;;;652      RCC_APB2PeriphClockCmd(RCC_APB2Periph_GPIOD | RCC_APB2Periph_GPIOE |
0001ee  2101              MOVS     r1,#1
0001f0  f24010e1          MOV      r0,#0x1e1
0001f4  f7fffffe          BL       RCC_APB2PeriphClockCmd
;;;653                             RCC_APB2Periph_GPIOF | RCC_APB2Periph_GPIOG |
;;;654                             RCC_APB2Periph_AFIO, ENABLE);
;;;655    
;;;656      /* Set PD.00(D2), PD.01(D3), PD.04(NOE), PD.05(NWE), PD.08(D13), PD.09(D14),
;;;657         PD.10(D15), PD.14(D0), PD.15(D1) as alternate 
;;;658         function push pull */
;;;659      GPIO_InitStructure.GPIO_Pin = GPIO_Pin_0 | GPIO_Pin_1 | GPIO_Pin_4 | GPIO_Pin_5 |
0001f8  f24c7033          MOV      r0,#0xc733
0001fc  f8ad0000          STRH     r0,[sp,#0]
;;;660                                    GPIO_Pin_8 | GPIO_Pin_9 | GPIO_Pin_10 | GPIO_Pin_14 | 
;;;661                                    GPIO_Pin_15;
;;;662      GPIO_InitStructure.GPIO_Speed = GPIO_Speed_50MHz;
000200  2003              MOVS     r0,#3
000202  f88d0002          STRB     r0,[sp,#2]
;;;663      GPIO_InitStructure.GPIO_Mode = GPIO_Mode_AF_PP;
000206  2018              MOVS     r0,#0x18
000208  f88d0003          STRB     r0,[sp,#3]
;;;664      GPIO_Init(GPIOD, &GPIO_InitStructure);
00020c  4669              MOV      r1,sp
00020e  4884              LDR      r0,|L1.1056|
000210  f7fffffe          BL       GPIO_Init
;;;665    
;;;666      /* Set PE.07(D4), PE.08(D5), PE.09(D6), PE.10(D7), PE.11(D8), PE.12(D9), PE.13(D10),
;;;667         PE.14(D11), PE.15(D12) as alternate function push pull */
;;;668      GPIO_InitStructure.GPIO_Pin = GPIO_Pin_6 | GPIO_Pin_7 | GPIO_Pin_8 | GPIO_Pin_9 | GPIO_Pin_10 | 
000214  f64f70c0          MOV      r0,#0xffc0
000218  f8ad0000          STRH     r0,[sp,#0]
;;;669                                    GPIO_Pin_11 | GPIO_Pin_12 | GPIO_Pin_13 | GPIO_Pin_14 | 
;;;670                                    GPIO_Pin_15;
;;;671      GPIO_Init(GPIOE, &GPIO_InitStructure);
00021c  4669              MOV      r1,sp
00021e  4881              LDR      r0,|L1.1060|
000220  f7fffffe          BL       GPIO_Init
;;;672    
;;;673      GPIO_WriteBit(GPIOE, GPIO_Pin_6, Bit_SET);
000224  2201              MOVS     r2,#1
000226  2140              MOVS     r1,#0x40
000228  487e              LDR      r0,|L1.1060|
00022a  f7fffffe          BL       GPIO_WriteBit
;;;674    
;;;675      /* Set PF.00(A0 (RS)) as alternate function push pull */
;;;676      GPIO_InitStructure.GPIO_Pin = GPIO_Pin_0;
00022e  2001              MOVS     r0,#1
000230  f8ad0000          STRH     r0,[sp,#0]
;;;677      GPIO_Init(GPIOF, &GPIO_InitStructure);
000234  4669              MOV      r1,sp
000236  487c              LDR      r0,|L1.1064|
000238  f7fffffe          BL       GPIO_Init
;;;678    
;;;679      /* Set PG.12(NE4 (LCD/CS)) as alternate function push pull - CE3(LCD /CS) */
;;;680      GPIO_InitStructure.GPIO_Pin = GPIO_Pin_12;
00023c  f44f5080          MOV      r0,#0x1000
000240  f8ad0000          STRH     r0,[sp,#0]
;;;681      GPIO_Init(GPIOG, &GPIO_InitStructure);
000244  4669              MOV      r1,sp
000246  4879              LDR      r0,|L1.1068|
000248  f7fffffe          BL       GPIO_Init
;;;682    
;;;683      GPIO_InitStructure.GPIO_Pin = GPIO_Pin_2;
00024c  2004              MOVS     r0,#4
00024e  f8ad0000          STRH     r0,[sp,#0]
;;;684      GPIO_InitStructure.GPIO_Speed = GPIO_Speed_50MHz;
000252  2003              MOVS     r0,#3
000254  f88d0002          STRB     r0,[sp,#2]
;;;685      GPIO_InitStructure.GPIO_Mode = GPIO_Mode_Out_PP;
000258  2010              MOVS     r0,#0x10
00025a  f88d0003          STRB     r0,[sp,#3]
;;;686      GPIO_Init(GPIOE, &GPIO_InitStructure);
00025e  4669              MOV      r1,sp
000260  4870              LDR      r0,|L1.1060|
000262  f7fffffe          BL       GPIO_Init
;;;687      GPIO_WriteBit(GPIOE, GPIO_Pin_2, Bit_RESET);
000266  2200              MOVS     r2,#0
000268  2104              MOVS     r1,#4
00026a  486e              LDR      r0,|L1.1060|
00026c  f7fffffe          BL       GPIO_WriteBit
;;;688    }
000270  bd08              POP      {r3,pc}
;;;689    
                          ENDP

                  STM3210E_LCD_Init PROC
;;;149    ****************************************************************************/
;;;150    void STM3210E_LCD_Init(void)
000272  b510              PUSH     {r4,lr}
;;;151    { 
;;;152    /* LCD管脚初始化 --------------------------------------------*/
;;;153      LCD_CtrlLinesConfig();
000274  f7fffffe          BL       LCD_CtrlLinesConfig
;;;154    
;;;155    /* FSMC初始化 -----------------------------------------------*/
;;;156      LCD_FSMCConfig();
000278  f7fffffe          BL       LCD_FSMCConfig
;;;157    
;;;158      DeviceCode = LCD_ReadReg(0x0000); 
00027c  2000              MOVS     r0,#0
00027e  f7fffffe          BL       LCD_ReadReg
000282  4965              LDR      r1,|L1.1048|
000284  8008              STRH     r0,[r1,#0]
;;;159     // DeviceCode = 0x8999;
;;;160       
;;;161      if(DeviceCode==0x9325)			  
000286  4608              MOV      r0,r1
000288  8800              LDRH     r0,[r0,#0]  ; DeviceCode
00028a  f5a04113          SUB      r1,r0,#0x9300
00028e  3925              SUBS     r1,r1,#0x25
000290  d17d              BNE      |L1.910|
;;;162      {
;;;163    	  Delay(5); /* 延时 50 ms */
000292  2005              MOVS     r0,#5
000294  f7fffffe          BL       Delay
;;;164    	  Delay(5); /* 延时 50 ms */
000298  2005              MOVS     r0,#5
00029a  f7fffffe          BL       Delay
;;;165    	  
;;;166    	  LCD_WriteReg(0x00FF,0x0001);
00029e  2101              MOVS     r1,#1
0002a0  20ff              MOVS     r0,#0xff
0002a2  f7fffffe          BL       LCD_WriteReg
;;;167    	  LCD_WriteReg(0x00F3,0x0008);
0002a6  2108              MOVS     r1,#8
0002a8  20f3              MOVS     r0,#0xf3
0002aa  f7fffffe          BL       LCD_WriteReg
;;;168    	  LCD_WriteReg(0x0001,0x0100);
0002ae  f44f7180          MOV      r1,#0x100
0002b2  2001              MOVS     r0,#1
0002b4  f7fffffe          BL       LCD_WriteReg
;;;169    	  LCD_WriteReg(0x0002,0x0700);
0002b8  f44f61e0          MOV      r1,#0x700
0002bc  2002              MOVS     r0,#2
0002be  f7fffffe          BL       LCD_WriteReg
;;;170    	  LCD_WriteReg(0x0003,0x1030);  //0x1030
0002c2  f2410130          MOV      r1,#0x1030
0002c6  2003              MOVS     r0,#3
0002c8  f7fffffe          BL       LCD_WriteReg
;;;171    	  LCD_WriteReg(0x0008,0x0302);
0002cc  f2403102          MOV      r1,#0x302
0002d0  2008              MOVS     r0,#8
0002d2  f7fffffe          BL       LCD_WriteReg
;;;172    	  LCD_WriteReg(0x0008,0x0207);
0002d6  f2402107          MOV      r1,#0x207
0002da  2008              MOVS     r0,#8
0002dc  f7fffffe          BL       LCD_WriteReg
;;;173    	  LCD_WriteReg(0x0009,0x0000);
0002e0  2100              MOVS     r1,#0
0002e2  2009              MOVS     r0,#9
0002e4  f7fffffe          BL       LCD_WriteReg
;;;174    	  LCD_WriteReg(0x000A,0x0000);
0002e8  2100              MOVS     r1,#0
0002ea  200a              MOVS     r0,#0xa
0002ec  f7fffffe          BL       LCD_WriteReg
;;;175    	  LCD_WriteReg(0x0010,0x0000);  //0x0790
0002f0  2100              MOVS     r1,#0
0002f2  2010              MOVS     r0,#0x10
0002f4  f7fffffe          BL       LCD_WriteReg
;;;176    	  LCD_WriteReg(0x0011,0x0005);
0002f8  2105              MOVS     r1,#5
0002fa  2011              MOVS     r0,#0x11
0002fc  f7fffffe          BL       LCD_WriteReg
;;;177    	  LCD_WriteReg(0x0012,0x0000);
000300  2100              MOVS     r1,#0
000302  2012              MOVS     r0,#0x12
000304  f7fffffe          BL       LCD_WriteReg
;;;178    	  LCD_WriteReg(0x0013,0x0000);
000308  2100              MOVS     r1,#0
00030a  2013              MOVS     r0,#0x13
00030c  f7fffffe          BL       LCD_WriteReg
;;;179    	  Delay(5);
000310  2005              MOVS     r0,#5
000312  f7fffffe          BL       Delay
;;;180    	  LCD_WriteReg(0x0010,0x12B0);
000316  f24121b0          MOV      r1,#0x12b0
00031a  2010              MOVS     r0,#0x10
00031c  f7fffffe          BL       LCD_WriteReg
;;;181    	  Delay(5);
000320  2005              MOVS     r0,#5
000322  f7fffffe          BL       Delay
;;;182    	  LCD_WriteReg(0x0011,0x0007);
000326  2107              MOVS     r1,#7
000328  2011              MOVS     r0,#0x11
00032a  f7fffffe          BL       LCD_WriteReg
;;;183    	  Delay(5);
00032e  2005              MOVS     r0,#5
000330  f7fffffe          BL       Delay
;;;184    	  LCD_WriteReg(0x0012,0x008B);
000334  218b              MOVS     r1,#0x8b
000336  2012              MOVS     r0,#0x12
000338  f7fffffe          BL       LCD_WriteReg
;;;185    	  Delay(5);
00033c  2005              MOVS     r0,#5
00033e  f7fffffe          BL       Delay
;;;186    	  LCD_WriteReg(0x0013,0x1700);
000342  f44f51b8          MOV      r1,#0x1700
000346  2013              MOVS     r0,#0x13
000348  f7fffffe          BL       LCD_WriteReg
;;;187    	  Delay(5);
00034c  2005              MOVS     r0,#5
00034e  f7fffffe          BL       Delay
;;;188    	  LCD_WriteReg(0x0029,0x0022);
000352  2122              MOVS     r1,#0x22
000354  2029              MOVS     r0,#0x29
000356  f7fffffe          BL       LCD_WriteReg
;;;189    
;;;190    	  LCD_WriteReg(0x0030,0x0000);
00035a  2100              MOVS     r1,#0
00035c  2030              MOVS     r0,#0x30
00035e  f7fffffe          BL       LCD_WriteReg
;;;191    	  LCD_WriteReg(0x0031,0x0707);
000362  f2407107          MOV      r1,#0x707
000366  2031              MOVS     r0,#0x31
000368  f7fffffe          BL       LCD_WriteReg
;;;192    	  LCD_WriteReg(0x0032,0x0505);
00036c  f2405105          MOV      r1,#0x505
000370  2032              MOVS     r0,#0x32
000372  f7fffffe          BL       LCD_WriteReg
;;;193    	  LCD_WriteReg(0x0035,0x0107);
000376  f2401107          MOV      r1,#0x107
00037a  2035              MOVS     r0,#0x35
00037c  f7fffffe          BL       LCD_WriteReg
;;;194    	  LCD_WriteReg(0x0036,0x0008);
000380  2108              MOVS     r1,#8
000382  2036              MOVS     r0,#0x36
000384  f7fffffe          BL       LCD_WriteReg
;;;195    	  LCD_WriteReg(0x0037,0x0000);
000388  2100              MOVS     r1,#0
00038a  2037              MOVS     r0,#0x37
00038c  e000              B        |L1.912|
                  |L1.910|
00038e  e04f              B        |L1.1072|
                  |L1.912|
000390  f7fffffe          BL       LCD_WriteReg
;;;196    	  LCD_WriteReg(0x0038,0x0202);
000394  f2402102          MOV      r1,#0x202
000398  2038              MOVS     r0,#0x38
00039a  f7fffffe          BL       LCD_WriteReg
;;;197    	  LCD_WriteReg(0x0039,0x0106);
00039e  f44f7183          MOV      r1,#0x106
0003a2  2039              MOVS     r0,#0x39
0003a4  f7fffffe          BL       LCD_WriteReg
;;;198    	  LCD_WriteReg(0x003C,0x0202);
0003a8  f2402102          MOV      r1,#0x202
0003ac  203c              MOVS     r0,#0x3c
0003ae  f7fffffe          BL       LCD_WriteReg
;;;199    	  LCD_WriteReg(0x003D,0x0408);
0003b2  f44f6181          MOV      r1,#0x408
0003b6  203d              MOVS     r0,#0x3d
0003b8  f7fffffe          BL       LCD_WriteReg
;;;200    	  Delay(5);
0003bc  2005              MOVS     r0,#5
0003be  f7fffffe          BL       Delay
;;;201    			
;;;202    	  LCD_WriteReg(0x0050,0x0000);		
0003c2  2100              MOVS     r1,#0
0003c4  2050              MOVS     r0,#0x50
0003c6  f7fffffe          BL       LCD_WriteReg
;;;203    	  LCD_WriteReg(0x0051,0x00EF);		
0003ca  21ef              MOVS     r1,#0xef
0003cc  2051              MOVS     r0,#0x51
0003ce  f7fffffe          BL       LCD_WriteReg
;;;204    	  LCD_WriteReg(0x0052,0x0000);		
0003d2  2100              MOVS     r1,#0
0003d4  2052              MOVS     r0,#0x52
0003d6  f7fffffe          BL       LCD_WriteReg
;;;205    	  LCD_WriteReg(0x0053,0x013F);		
0003da  f240113f          MOV      r1,#0x13f
0003de  2053              MOVS     r0,#0x53
0003e0  f7fffffe          BL       LCD_WriteReg
;;;206    	  LCD_WriteReg(0x0060,0x2700);		
0003e4  f44f511c          MOV      r1,#0x2700
0003e8  2060              MOVS     r0,#0x60
0003ea  f7fffffe          BL       LCD_WriteReg
;;;207    	  LCD_WriteReg(0x0061,0x0001);
0003ee  2101              MOVS     r1,#1
0003f0  2061              MOVS     r0,#0x61
0003f2  f7fffffe          BL       LCD_WriteReg
;;;208    	  LCD_WriteReg(0x0090,0x0033);				
0003f6  2133              MOVS     r1,#0x33
0003f8  2090              MOVS     r0,#0x90
0003fa  f7fffffe          BL       LCD_WriteReg
;;;209    	  LCD_WriteReg(0x002B,0x000B);		
0003fe  210b              MOVS     r1,#0xb
000400  202b              MOVS     r0,#0x2b
000402  f7fffffe          BL       LCD_WriteReg
;;;210    	  LCD_WriteReg(0x0007,0x0133);
000406  f2401133          MOV      r1,#0x133
00040a  2007              MOVS     r0,#7
00040c  f7fffffe          BL       LCD_WriteReg
;;;211    	  Delay(5); 
000410  2005              MOVS     r0,#5
000412  f7fffffe          BL       Delay
000416  e1ad              B        |L1.1908|
                  |L1.1048|
                          DCD      DeviceCode
                  |L1.1052|
                          DCD      ASCII_Table
                  |L1.1056|
                          DCD      0x40011400
                  |L1.1060|
                          DCD      0x40011800
                  |L1.1064|
                          DCD      0x40011c00
                  |L1.1068|
                          DCD      0x40012000
                  |L1.1072|
;;;212    	}
;;;213    	else if(DeviceCode==0x9320)	
000430  48fe              LDR      r0,|L1.2092|
000432  8800              LDRH     r0,[r0,#0]  ; DeviceCode
000434  f5a04113          SUB      r1,r0,#0x9300
000438  3920              SUBS     r1,r1,#0x20
00043a  d17d              BNE      |L1.1336|
;;;214    	{				
;;;215    		  Delay(5); /* 延时 50 ms */
00043c  2005              MOVS     r0,#5
00043e  f7fffffe          BL       Delay
;;;216    		
;;;217    		  LCD_WriteReg(R229,0x8000); /* Set the internal vcore voltage */
000442  f44f4100          MOV      r1,#0x8000
000446  20e5              MOVS     r0,#0xe5
000448  f7fffffe          BL       LCD_WriteReg
;;;218    		  LCD_WriteReg(R0,  0x0001); /* Start internal OSC. */
00044c  2101              MOVS     r1,#1
00044e  2000              MOVS     r0,#0
000450  f7fffffe          BL       LCD_WriteReg
;;;219    		  LCD_WriteReg(R1,  0x0100); /* set SS and SM bit */
000454  f44f7180          MOV      r1,#0x100
000458  2001              MOVS     r0,#1
00045a  f7fffffe          BL       LCD_WriteReg
;;;220    		  LCD_WriteReg(R2,  0x0700); /* set 1 line inversion */
00045e  f44f61e0          MOV      r1,#0x700
000462  2002              MOVS     r0,#2
000464  f7fffffe          BL       LCD_WriteReg
;;;221    		  LCD_WriteReg(R3,  0x1030); /* set GRAM write direction and BGR=1. */
000468  f2410130          MOV      r1,#0x1030
00046c  2003              MOVS     r0,#3
00046e  f7fffffe          BL       LCD_WriteReg
;;;222    		  LCD_WriteReg(R4,  0x0000); /* Resize register */
000472  2100              MOVS     r1,#0
000474  2004              MOVS     r0,#4
000476  f7fffffe          BL       LCD_WriteReg
;;;223    		  LCD_WriteReg(R8,  0x0202); /* set the back porch and front porch */
00047a  f2402102          MOV      r1,#0x202
00047e  2008              MOVS     r0,#8
000480  f7fffffe          BL       LCD_WriteReg
;;;224    		  LCD_WriteReg(R9,  0x0000); /* set non-display area refresh cycle ISC[3:0] */
000484  2100              MOVS     r1,#0
000486  2009              MOVS     r0,#9
000488  f7fffffe          BL       LCD_WriteReg
;;;225    		  LCD_WriteReg(R10, 0x0000); /* FMARK function */
00048c  2100              MOVS     r1,#0
00048e  200a              MOVS     r0,#0xa
000490  f7fffffe          BL       LCD_WriteReg
;;;226    		  LCD_WriteReg(R12, 0x0000); /* RGB interface setting */
000494  2100              MOVS     r1,#0
000496  200c              MOVS     r0,#0xc
000498  f7fffffe          BL       LCD_WriteReg
;;;227    		  LCD_WriteReg(R13, 0x0000); /* Frame marker Position */
00049c  2100              MOVS     r1,#0
00049e  200d              MOVS     r0,#0xd
0004a0  f7fffffe          BL       LCD_WriteReg
;;;228    		  LCD_WriteReg(R15, 0x0000); /* RGB interface polarity */
0004a4  2100              MOVS     r1,#0
0004a6  200f              MOVS     r0,#0xf
0004a8  f7fffffe          BL       LCD_WriteReg
;;;229    		
;;;230    		/* Power On sequence ---------------------------------------------------------*/
;;;231    		  LCD_WriteReg(R16, 0x0000); /* SAP, BT[3:0], AP, DSTB, SLP, STB */
0004ac  2100              MOVS     r1,#0
0004ae  2010              MOVS     r0,#0x10
0004b0  f7fffffe          BL       LCD_WriteReg
;;;232    		  LCD_WriteReg(R17, 0x0000); /* DC1[2:0], DC0[2:0], VC[2:0] */
0004b4  2100              MOVS     r1,#0
0004b6  2011              MOVS     r0,#0x11
0004b8  f7fffffe          BL       LCD_WriteReg
;;;233    		  LCD_WriteReg(R18, 0x0000); /* VREG1OUT voltage */
0004bc  2100              MOVS     r1,#0
0004be  2012              MOVS     r0,#0x12
0004c0  f7fffffe          BL       LCD_WriteReg
;;;234    		  LCD_WriteReg(R19, 0x0000); /* VDV[4:0] for VCOM amplitude */
0004c4  2100              MOVS     r1,#0
0004c6  2013              MOVS     r0,#0x13
0004c8  f7fffffe          BL       LCD_WriteReg
;;;235    		  Delay(20);                 /* Dis-charge capacitor power voltage (200ms) */
0004cc  2014              MOVS     r0,#0x14
0004ce  f7fffffe          BL       Delay
;;;236    		  LCD_WriteReg(R16, 0x17B0); /* SAP, BT[3:0], AP, DSTB, SLP, STB */
0004d2  f24171b0          MOV      r1,#0x17b0
0004d6  2010              MOVS     r0,#0x10
0004d8  f7fffffe          BL       LCD_WriteReg
;;;237    		  LCD_WriteReg(R17, 0x0137); /* DC1[2:0], DC0[2:0], VC[2:0] */
0004dc  f2401137          MOV      r1,#0x137
0004e0  2011              MOVS     r0,#0x11
0004e2  f7fffffe          BL       LCD_WriteReg
;;;238    		  Delay(5);                  /* Delay 50 ms */
0004e6  2005              MOVS     r0,#5
0004e8  f7fffffe          BL       Delay
;;;239    		  LCD_WriteReg(R18, 0x0139); /* VREG1OUT voltage */
0004ec  f2401139          MOV      r1,#0x139
0004f0  2012              MOVS     r0,#0x12
0004f2  f7fffffe          BL       LCD_WriteReg
;;;240    		  Delay(5);                  /* Delay 50 ms */
0004f6  2005              MOVS     r0,#5
0004f8  f7fffffe          BL       Delay
;;;241    		  LCD_WriteReg(R19, 0x1d00); /* VDV[4:0] for VCOM amplitude */
0004fc  f44f51e8          MOV      r1,#0x1d00
000500  2013              MOVS     r0,#0x13
000502  f7fffffe          BL       LCD_WriteReg
;;;242    		  LCD_WriteReg(R41, 0x0013); /* VCM[4:0] for VCOMH */
000506  2113              MOVS     r1,#0x13
000508  2029              MOVS     r0,#0x29
00050a  f7fffffe          BL       LCD_WriteReg
;;;243    		  Delay(5);                  /* Delay 50 ms */
00050e  2005              MOVS     r0,#5
000510  f7fffffe          BL       Delay
;;;244    		  LCD_WriteReg(R32, 0x0000); /* GRAM horizontal Address */
000514  2100              MOVS     r1,#0
000516  2020              MOVS     r0,#0x20
000518  f7fffffe          BL       LCD_WriteReg
;;;245    		  LCD_WriteReg(R33, 0x0000); /* GRAM Vertical Address */
00051c  2100              MOVS     r1,#0
00051e  2021              MOVS     r0,#0x21
000520  f7fffffe          BL       LCD_WriteReg
;;;246    		
;;;247    		/* Adjust the Gamma Curve ----------------------------------------------------*/
;;;248    		  LCD_WriteReg(R48, 0x0006);
000524  2106              MOVS     r1,#6
000526  2030              MOVS     r0,#0x30
000528  f7fffffe          BL       LCD_WriteReg
;;;249    		  LCD_WriteReg(R49, 0x0101);
00052c  f2401101          MOV      r1,#0x101
000530  2031              MOVS     r0,#0x31
000532  f7fffffe          BL       LCD_WriteReg
;;;250    		  LCD_WriteReg(R50, 0x0003);
000536  e000              B        |L1.1338|
                  |L1.1336|
000538  e085              B        |L1.1606|
                  |L1.1338|
00053a  2103              MOVS     r1,#3
00053c  2032              MOVS     r0,#0x32
00053e  f7fffffe          BL       LCD_WriteReg
;;;251    		  LCD_WriteReg(R53, 0x0106);
000542  f44f7183          MOV      r1,#0x106
000546  2035              MOVS     r0,#0x35
000548  f7fffffe          BL       LCD_WriteReg
;;;252    		  LCD_WriteReg(R54, 0x0b02);
00054c  f6403102          MOV      r1,#0xb02
000550  2036              MOVS     r0,#0x36
000552  f7fffffe          BL       LCD_WriteReg
;;;253    		  LCD_WriteReg(R55, 0x0302);
000556  f2403102          MOV      r1,#0x302
00055a  2037              MOVS     r0,#0x37
00055c  f7fffffe          BL       LCD_WriteReg
;;;254    		  LCD_WriteReg(R56, 0x0707);
000560  f2407107          MOV      r1,#0x707
000564  2038              MOVS     r0,#0x38
000566  f7fffffe          BL       LCD_WriteReg
;;;255    		  LCD_WriteReg(R57, 0x0007);
00056a  2107              MOVS     r1,#7
00056c  2039              MOVS     r0,#0x39
00056e  f7fffffe          BL       LCD_WriteReg
;;;256    		  LCD_WriteReg(R60, 0x0600);
000572  f44f61c0          MOV      r1,#0x600
000576  203c              MOVS     r0,#0x3c
000578  f7fffffe          BL       LCD_WriteReg
;;;257    		  LCD_WriteReg(R61, 0x020b);
00057c  f240210b          MOV      r1,#0x20b
000580  203d              MOVS     r0,#0x3d
000582  f7fffffe          BL       LCD_WriteReg
;;;258    		  
;;;259    		/* Set GRAM area -------------------------------------------------------------*/
;;;260    		  LCD_WriteReg(R80, 0x0000); /* Horizontal GRAM Start Address */
000586  2100              MOVS     r1,#0
000588  2050              MOVS     r0,#0x50
00058a  f7fffffe          BL       LCD_WriteReg
;;;261    		  LCD_WriteReg(R81, 0x00EF); /* Horizontal GRAM End Address */
00058e  21ef              MOVS     r1,#0xef
000590  2051              MOVS     r0,#0x51
000592  f7fffffe          BL       LCD_WriteReg
;;;262    		  LCD_WriteReg(R82, 0x0000); /* Vertical GRAM Start Address */
000596  2100              MOVS     r1,#0
000598  2052              MOVS     r0,#0x52
00059a  f7fffffe          BL       LCD_WriteReg
;;;263    		  LCD_WriteReg(R83, 0x013F); /* Vertical GRAM End Address */
00059e  f240113f          MOV      r1,#0x13f
0005a2  2053              MOVS     r0,#0x53
0005a4  f7fffffe          BL       LCD_WriteReg
;;;264    				
;;;265    		  LCD_WriteReg(R96,  0xA700); /* 3.2-->9320->0xA700 Gate Scan Line */
0005a8  f44f4127          MOV      r1,#0xa700
0005ac  2060              MOVS     r0,#0x60
0005ae  f7fffffe          BL       LCD_WriteReg
;;;266    		
;;;267    		  LCD_WriteReg(R97,  0x0001); /* NDL,VLE, REV */
0005b2  2101              MOVS     r1,#1
0005b4  2061              MOVS     r0,#0x61
0005b6  f7fffffe          BL       LCD_WriteReg
;;;268    		  LCD_WriteReg(R106, 0x0000); /* set scrolling line */
0005ba  2100              MOVS     r1,#0
0005bc  206a              MOVS     r0,#0x6a
0005be  f7fffffe          BL       LCD_WriteReg
;;;269    		
;;;270    		/* Partial Display Control ---------------------------------------------------*/
;;;271    		  LCD_WriteReg(R128, 0x0000);
0005c2  2100              MOVS     r1,#0
0005c4  2080              MOVS     r0,#0x80
0005c6  f7fffffe          BL       LCD_WriteReg
;;;272    		  LCD_WriteReg(R129, 0x0000);
0005ca  2100              MOVS     r1,#0
0005cc  2081              MOVS     r0,#0x81
0005ce  f7fffffe          BL       LCD_WriteReg
;;;273    		  LCD_WriteReg(R130, 0x0000);
0005d2  2100              MOVS     r1,#0
0005d4  2082              MOVS     r0,#0x82
0005d6  f7fffffe          BL       LCD_WriteReg
;;;274    		  LCD_WriteReg(R131, 0x0000);
0005da  2100              MOVS     r1,#0
0005dc  2083              MOVS     r0,#0x83
0005de  f7fffffe          BL       LCD_WriteReg
;;;275    		  LCD_WriteReg(R132, 0x0000);
0005e2  2100              MOVS     r1,#0
0005e4  2084              MOVS     r0,#0x84
0005e6  f7fffffe          BL       LCD_WriteReg
;;;276    		  LCD_WriteReg(R133, 0x0000);
0005ea  2100              MOVS     r1,#0
0005ec  2085              MOVS     r0,#0x85
0005ee  f7fffffe          BL       LCD_WriteReg
;;;277    		
;;;278    		/* Panel Control -------------------------------------------------------------*/
;;;279    		  LCD_WriteReg(R144, 0x0010);
0005f2  2110              MOVS     r1,#0x10
0005f4  2090              MOVS     r0,#0x90
0005f6  f7fffffe          BL       LCD_WriteReg
;;;280    		  LCD_WriteReg(R146, 0x0000);
0005fa  2100              MOVS     r1,#0
0005fc  2092              MOVS     r0,#0x92
0005fe  f7fffffe          BL       LCD_WriteReg
;;;281    		  LCD_WriteReg(R147, 0x0003);
000602  2103              MOVS     r1,#3
000604  2093              MOVS     r0,#0x93
000606  f7fffffe          BL       LCD_WriteReg
;;;282    		  LCD_WriteReg(R149, 0x0110);
00060a  f44f7188          MOV      r1,#0x110
00060e  2095              MOVS     r0,#0x95
000610  f7fffffe          BL       LCD_WriteReg
;;;283    		  LCD_WriteReg(R151, 0x0000);
000614  2100              MOVS     r1,#0
000616  2097              MOVS     r0,#0x97
000618  f7fffffe          BL       LCD_WriteReg
;;;284    		  LCD_WriteReg(R152, 0x0000);
00061c  2100              MOVS     r1,#0
00061e  2098              MOVS     r0,#0x98
000620  f7fffffe          BL       LCD_WriteReg
;;;285    		
;;;286    		  /* Set GRAM write direction and BGR = 1 */
;;;287    		  /* I/D=01 (Horizontal : increment, Vertical : decrement) */
;;;288    		  /* AM=1 (address is updated in vertical writing direction) */
;;;289    		  LCD_WriteReg(R3, 0x1018);
000624  f2410118          MOV      r1,#0x1018
000628  2003              MOVS     r0,#3
00062a  f7fffffe          BL       LCD_WriteReg
;;;290    		
;;;291    		  LCD_WriteReg(R7, 0x0173); /* 262K color and display ON */
00062e  f2401173          MOV      r1,#0x173
000632  2007              MOVS     r0,#7
000634  f7fffffe          BL       LCD_WriteReg
;;;292    		  
;;;293    		  Delay(5); /* delay 50 ms */
000638  2005              MOVS     r0,#5
00063a  f7fffffe          BL       Delay
;;;294    		  Delay(5); /* delay 50 ms */			//start internal osc
00063e  2005              MOVS     r0,#5
000640  f7fffffe          BL       Delay
                  |L1.1604|
000644  e096              B        |L1.1908|
                  |L1.1606|
;;;295    	}
;;;296    	else if(DeviceCode==0x8999)	   //对应的驱动IC为SSD1289
000646  4879              LDR      r0,|L1.2092|
000648  8800              LDRH     r0,[r0,#0]  ; DeviceCode
00064a  f5a04109          SUB      r1,r0,#0x8900
00064e  3999              SUBS     r1,r1,#0x99
000650  d1f8              BNE      |L1.1604|
;;;297    	{
;;;298    		//************* Start Initial Sequence **********//
;;;299    		LCD_WriteReg(0x00, 0x0001); // Start internal OSC.
000652  2101              MOVS     r1,#1
000654  2000              MOVS     r0,#0
000656  f7fffffe          BL       LCD_WriteReg
;;;300    		LCD_WriteReg(0x01, 0x7b3F); // Driver o 0011 1101 utput control, RL=0;REV=1;GD=1;BGR=0;SM=0;TB=1
00065a  f647313f          MOV      r1,#0x7b3f
00065e  2001              MOVS     r0,#1
000660  f7fffffe          BL       LCD_WriteReg
;;;301    		LCD_WriteReg(0x02, 0x0600); // set 1 line inversion
000664  f44f61c0          MOV      r1,#0x600
000668  2002              MOVS     r0,#2
00066a  f7fffffe          BL       LCD_WriteReg
;;;302    		//************* Power control setup ************/
;;;303    		LCD_WriteReg(0x0C, 0x0007); // Adjust VCIX2 output voltage
00066e  2107              MOVS     r1,#7
000670  200c              MOVS     r0,#0xc
000672  f7fffffe          BL       LCD_WriteReg
;;;304    		LCD_WriteReg(0x0D, 0x0006); // Set amplitude magnification of VLCD63
000676  2106              MOVS     r1,#6
000678  200d              MOVS     r0,#0xd
00067a  f7fffffe          BL       LCD_WriteReg
;;;305    		LCD_WriteReg(0x0E, 0x3200); // Set alternating amplitude of VCOM
00067e  f44f5148          MOV      r1,#0x3200
000682  200e              MOVS     r0,#0xe
000684  f7fffffe          BL       LCD_WriteReg
;;;306    		LCD_WriteReg(0x1E, 0x00BB); // Set VcomH voltage
000688  21bb              MOVS     r1,#0xbb
00068a  201e              MOVS     r0,#0x1e
00068c  f7fffffe          BL       LCD_WriteReg
;;;307    		LCD_WriteReg(0x03, 0x6A64); // Step-up factor/cycle setting
000690  f6462164          MOV      r1,#0x6a64
000694  2003              MOVS     r0,#3
000696  f7fffffe          BL       LCD_WriteReg
;;;308    		//************ RAM position control **********/
;;;309    		LCD_WriteReg(0x0F, 0x0000); // Gate scan position start at G0.
00069a  2100              MOVS     r1,#0
00069c  200f              MOVS     r0,#0xf
00069e  f7fffffe          BL       LCD_WriteReg
;;;310    		LCD_WriteReg(0x44, 0xEF00); // Horizontal RAM address position
0006a2  f44f416f          MOV      r1,#0xef00
0006a6  2044              MOVS     r0,#0x44
0006a8  f7fffffe          BL       LCD_WriteReg
;;;311    		LCD_WriteReg(0x45, 0x0000); // Vertical RAM address start position
0006ac  2100              MOVS     r1,#0
0006ae  2045              MOVS     r0,#0x45
0006b0  f7fffffe          BL       LCD_WriteReg
;;;312    		LCD_WriteReg(0x46, 0x013F); // Vertical RAM address end position
0006b4  f240113f          MOV      r1,#0x13f
0006b8  2046              MOVS     r0,#0x46
0006ba  f7fffffe          BL       LCD_WriteReg
;;;313    		// ----------- Adjust the Gamma Curve ----------//
;;;314    		LCD_WriteReg(0x30, 0x0000);
0006be  2100              MOVS     r1,#0
0006c0  2030              MOVS     r0,#0x30
0006c2  f7fffffe          BL       LCD_WriteReg
;;;315    		LCD_WriteReg(0x31, 0x0706);
0006c6  f2407106          MOV      r1,#0x706
0006ca  2031              MOVS     r0,#0x31
0006cc  f7fffffe          BL       LCD_WriteReg
;;;316    		LCD_WriteReg(0x32, 0x0206);
0006d0  f2402106          MOV      r1,#0x206
0006d4  2032              MOVS     r0,#0x32
0006d6  f7fffffe          BL       LCD_WriteReg
;;;317    		LCD_WriteReg(0x33, 0x0300);
0006da  f44f7140          MOV      r1,#0x300
0006de  2033              MOVS     r0,#0x33
0006e0  f7fffffe          BL       LCD_WriteReg
;;;318    		LCD_WriteReg(0x34, 0x0002);
0006e4  2102              MOVS     r1,#2
0006e6  2034              MOVS     r0,#0x34
0006e8  f7fffffe          BL       LCD_WriteReg
;;;319    		LCD_WriteReg(0x35, 0x0000);
0006ec  2100              MOVS     r1,#0
0006ee  2035              MOVS     r0,#0x35
0006f0  f7fffffe          BL       LCD_WriteReg
;;;320    		LCD_WriteReg(0x36, 0x0707);
0006f4  f2407107          MOV      r1,#0x707
0006f8  2036              MOVS     r0,#0x36
0006fa  f7fffffe          BL       LCD_WriteReg
;;;321    		LCD_WriteReg(0x37, 0x0200);
0006fe  f44f7100          MOV      r1,#0x200
000702  2037              MOVS     r0,#0x37
000704  f7fffffe          BL       LCD_WriteReg
;;;322    		LCD_WriteReg(0x3A, 0x0908);
000708  f6401108          MOV      r1,#0x908
00070c  203a              MOVS     r0,#0x3a
00070e  f7fffffe          BL       LCD_WriteReg
;;;323    		LCD_WriteReg(0x3B, 0x0F0D);
000712  f640710d          MOV      r1,#0xf0d
000716  203b              MOVS     r0,#0x3b
000718  f7fffffe          BL       LCD_WriteReg
;;;324    		//************* Special command **************/
;;;325    		LCD_WriteReg(0x28, 0x0006); // Enable test command
00071c  2106              MOVS     r1,#6
00071e  2028              MOVS     r0,#0x28
000720  f7fffffe          BL       LCD_WriteReg
;;;326    		LCD_WriteReg(0x2F, 0x12EB); // RAM speed tuning
000724  f24121eb          MOV      r1,#0x12eb
000728  202f              MOVS     r0,#0x2f
00072a  f7fffffe          BL       LCD_WriteReg
;;;327    		LCD_WriteReg(0x26, 0x7000); // Internal Bandgap strength
00072e  f44f41e0          MOV      r1,#0x7000
000732  2026              MOVS     r0,#0x26
000734  f7fffffe          BL       LCD_WriteReg
;;;328    		LCD_WriteReg(0x20, 0xB0E3); // Internal Vcom strength
000738  f24b01e3          MOV      r1,#0xb0e3
00073c  2020              MOVS     r0,#0x20
00073e  f7fffffe          BL       LCD_WriteReg
;;;329    		LCD_WriteReg(0x27, 0x0044); // Internal Vcomh/VcomL timing
000742  2144              MOVS     r1,#0x44
000744  2027              MOVS     r0,#0x27
000746  f7fffffe          BL       LCD_WriteReg
;;;330    		LCD_WriteReg(0x2E, 0x7E45); // VCOM charge sharing time  
00074a  f6476145          MOV      r1,#0x7e45
00074e  202e              MOVS     r0,#0x2e
000750  f7fffffe          BL       LCD_WriteReg
;;;331    		//************* Turn On display ******************/
;;;332    		LCD_WriteReg(0x10, 0x0000); // Sleep mode off.
000754  2100              MOVS     r1,#0
000756  2010              MOVS     r0,#0x10
000758  f7fffffe          BL       LCD_WriteReg
;;;333    		Delay(8); // Wait 30mS
00075c  2008              MOVS     r0,#8
00075e  f7fffffe          BL       Delay
;;;334    		LCD_WriteReg(0x11, 0x6878);// Entry mode setup. 262K type B, take care on the data bus with 16it only  0x6870
000762  f6460178          MOV      r1,#0x6878
000766  2011              MOVS     r0,#0x11
000768  f7fffffe          BL       LCD_WriteReg
;;;335    		LCD_WriteReg(0x07, 0x0033); // Display ON	*/
00076c  2133              MOVS     r1,#0x33
00076e  2007              MOVS     r0,#7
000770  f7fffffe          BL       LCD_WriteReg
                  |L1.1908|
;;;336    	}
;;;337    	LCD_Clear(Black);	
000774  2000              MOVS     r0,#0
000776  f7fffffe          BL       LCD_Clear
;;;338    }
00077a  bd10              POP      {r4,pc}
;;;339    
                          ENDP

                  LCD_SetDisplayWindow PROC
;;;395    ****************************************************************************/
;;;396    void LCD_SetDisplayWindow(u8 Xpos, u16 Ypos, u8 Height, u16 Width)
00077c  b5f0              PUSH     {r4-r7,lr}
;;;397    {
00077e  4604              MOV      r4,r0
000780  460d              MOV      r5,r1
000782  4616              MOV      r6,r2
000784  461f              MOV      r7,r3
;;;398      /* Horizontal GRAM Start Address */
;;;399      LCD_WriteReg(R80, Xpos);
000786  4621              MOV      r1,r4
000788  2050              MOVS     r0,#0x50
00078a  f7fffffe          BL       LCD_WriteReg
;;;400    
;;;401      /* Horizontal GRAM End Address */
;;;402      LCD_WriteReg(R81, Xpos+Height);
00078e  19a1              ADDS     r1,r4,r6
000790  2051              MOVS     r0,#0x51
000792  f7fffffe          BL       LCD_WriteReg
;;;403     
;;;404      /* Vertical GRAM Start Address */
;;;405      LCD_WriteReg(R82, Ypos);
000796  4629              MOV      r1,r5
000798  2052              MOVS     r0,#0x52
00079a  f7fffffe          BL       LCD_WriteReg
;;;406    
;;;407      /* Vertical GRAM End Address */
;;;408      LCD_WriteReg(R83, Ypos+Width);
00079e  19e8              ADDS     r0,r5,r7
0007a0  b281              UXTH     r1,r0
0007a2  2053              MOVS     r0,#0x53
0007a4  f7fffffe          BL       LCD_WriteReg
;;;409    
;;;410      LCD_SetCursor(Xpos, Ypos);
0007a8  4629              MOV      r1,r5
0007aa  4620              MOV      r0,r4
0007ac  f7fffffe          BL       LCD_SetCursor
;;;411    }
0007b0  bdf0              POP      {r4-r7,pc}
;;;412    /************************************************************************************
                          ENDP

                  ShowOneChinese PROC
;;;423    ************************************************************************************/
;;;424    void ShowOneChinese(u8 Number, u8 x, u16 y,u16 PenColor,u16 BackColor)
0007b2  e92d4ff8          PUSH     {r3-r11,lr}
;;;425    {
0007b6  4680              MOV      r8,r0
0007b8  460e              MOV      r6,r1
0007ba  4617              MOV      r7,r2
0007bc  4699              MOV      r9,r3
;;;426        u8 i,j;
;;;427    	/*  汉字为16*16  */
;;;428    	u8 sizex = 16;
0007be  f04f0a10          MOV      r10,#0x10
;;;429    	u8 sizey = 16;	
0007c2  46d3              MOV      r11,r10
;;;430    	u8 *Chinese_buf = &Chinese_Table[Number * sizex * 2];
0007c4  fb08f00a          MUL      r0,r8,r10
0007c8  4919              LDR      r1,|L1.2096|
0007ca  eb010040          ADD      r0,r1,r0,LSL #1
0007ce  9000              STR      r0,[sp,#0]
;;;431     
;;;432        for(i=0; i<sizex; i++)                        /* sizex行   */
0007d0  2500              MOVS     r5,#0
0007d2  e026              B        |L1.2082|
                  |L1.2004|
;;;433        {                                              
;;;434            for(j=0; j<sizey; j++)                    /* sizey列   */
0007d4  2400              MOVS     r4,#0
0007d6  e020              B        |L1.2074|
                  |L1.2008|
;;;435            {
;;;436    		if((Chinese_buf[i*2+j/8] << (j%8)) & 0x80)      /* 显示第i行 共16个点 */
0007d8  17e2              ASRS     r2,r4,#31
0007da  eb047252          ADD      r2,r4,r2,LSR #29
0007de  10d2              ASRS     r2,r2,#3
0007e0  eb020345          ADD      r3,r2,r5,LSL #1
0007e4  9a00              LDR      r2,[sp,#0]
0007e6  5cd2              LDRB     r2,[r2,r3]
0007e8  17e3              ASRS     r3,r4,#31
0007ea  eb047353          ADD      r3,r4,r3,LSR #29
0007ee  10db              ASRS     r3,r3,#3
0007f0  eba403c3          SUB      r3,r4,r3,LSL #3
0007f4  409a              LSLS     r2,r2,r3
0007f6  f0120f80          TST      r2,#0x80
0007fa  d006              BEQ      |L1.2058|
;;;437                { 
;;;438    			 LCD_SetPoint(x+i,y+j,PenColor);
0007fc  193a              ADDS     r2,r7,r4
0007fe  b291              UXTH     r1,r2
000800  1970              ADDS     r0,r6,r5
000802  464a              MOV      r2,r9
000804  f7fffffe          BL       LCD_SetPoint
000808  e005              B        |L1.2070|
                  |L1.2058|
;;;439                } 
;;;440    		else 
;;;441    		{
;;;442                    LCD_SetPoint(x+i,y+j,BackColor);         
00080a  193a              ADDS     r2,r7,r4
00080c  b291              UXTH     r1,r2
00080e  1970              ADDS     r0,r6,r5
000810  9a0a              LDR      r2,[sp,#0x28]
000812  f7fffffe          BL       LCD_SetPoint
                  |L1.2070|
000816  1c60              ADDS     r0,r4,#1              ;434
000818  b2c4              UXTB     r4,r0                 ;434
                  |L1.2074|
00081a  455c              CMP      r4,r11                ;434
00081c  dbdc              BLT      |L1.2008|
00081e  1c68              ADDS     r0,r5,#1              ;432
000820  b2c5              UXTB     r5,r0                 ;432
                  |L1.2082|
000822  4555              CMP      r5,r10                ;432
000824  dbd6              BLT      |L1.2004|
;;;443    		}
;;;444            }
;;;445        }
;;;446    }
000826  e8bd8ff8          POP      {r3-r11,pc}
00082a  0000              DCW      0x0000
                  |L1.2092|
                          DCD      DeviceCode
                  |L1.2096|
                          DCD      Chinese_Table
                          ENDP

                  ShowLineChinese PROC
;;;458    ************************************************************************************/
;;;459    void ShowLineChinese(u8 Number,u8 counter ,u8 x, u16 y,u16 PenColor,u16 BackColor)
000834  e92d47f8          PUSH     {r3-r10,lr}
;;;460    {
000838  4605              MOV      r5,r0
00083a  460e              MOV      r6,r1
00083c  4617              MOV      r7,r2
00083e  4698              MOV      r8,r3
000840  e9dd9a09          LDRD     r9,r10,[sp,#0x24]
;;;461        u8 i;
;;;462        for(i=0;i<counter;i++)
000844  2400              MOVS     r4,#0
000846  e00c              B        |L1.2146|
                  |L1.2120|
;;;463    	{
;;;464    	    ShowOneChinese(Number + i, x , y + i*16,PenColor ,BackColor);    
000848  eb081104          ADD      r1,r8,r4,LSL #4
00084c  b28a              UXTH     r2,r1
00084e  1929              ADDS     r1,r5,r4
000850  b2c8              UXTB     r0,r1
000852  464b              MOV      r3,r9
000854  4639              MOV      r1,r7
000856  f8cda000          STR      r10,[sp,#0]
00085a  f7fffffe          BL       ShowOneChinese
00085e  1c60              ADDS     r0,r4,#1              ;462
000860  b2c4              UXTB     r4,r0                 ;462
                  |L1.2146|
000862  42b4              CMP      r4,r6                 ;462
000864  dbf0              BLT      |L1.2120|
;;;465    	}
;;;466    }
000866  e8bd87f8          POP      {r3-r10,pc}
;;;467    
                          ENDP

                  LCD_WriteBMP PROC
;;;479    ************************************************************************************/
;;;480    void LCD_WriteBMP(u8 Xpos, u16 Ypos, u8 Height, u16 Width, u8 *bitmap)
00086a  e92d4ff0          PUSH     {r4-r11,lr}
;;;481    {
00086e  4680              MOV      r8,r0
000870  4689              MOV      r9,r1
000872  4614              MOV      r4,r2
000874  461d              MOV      r5,r3
000876  f8dda024          LDR      r10,[sp,#0x24]
;;;482      vu32 index;
;;;483      vu32 size = Height * Width;
00087a  fb04fb05          MUL      r11,r4,r5
;;;484      u16 *bitmap_ptr = (u16 *)bitmap;
00087e  4657              MOV      r7,r10
;;;485    
;;;486      LCD_SetDisplayWindow(Xpos, Ypos, Height-1, Width-1);
000880  1e68              SUBS     r0,r5,#1
000882  b283              UXTH     r3,r0
000884  1e60              SUBS     r0,r4,#1
000886  b2c2              UXTB     r2,r0
000888  4649              MOV      r1,r9
00088a  4640              MOV      r0,r8
00088c  f7fffffe          BL       LCD_SetDisplayWindow
;;;487    
;;;488      /* Set GRAM write direction and BGR = 1 */
;;;489      /* I/D=00 (Horizontal : decrement, Vertical : decrement) */
;;;490      /* AM=1 (address is updated in vertical writing direction) */
;;;491      LCD_WriteReg(R3, 0x1038);
000890  f2410138          MOV      r1,#0x1038
000894  2003              MOVS     r0,#3
000896  f7fffffe          BL       LCD_WriteReg
;;;492     
;;;493      LCD_WriteRAM_Prepare();
00089a  f7fffffe          BL       LCD_WriteRAM_Prepare
;;;494     
;;;495      for(index = 0; index < size; index++)
00089e  2600              MOVS     r6,#0
0008a0  e004              B        |L1.2220|
                  |L1.2210|
;;;496      {
;;;497    	LCD_WriteRAM(*bitmap_ptr++);
0008a2  f8370b02          LDRH     r0,[r7],#2
0008a6  f7fffffe          BL       LCD_WriteRAM
0008aa  1c76              ADDS     r6,r6,#1              ;495
                  |L1.2220|
0008ac  455e              CMP      r6,r11                ;495
0008ae  d3f8              BCC      |L1.2210|
;;;498      }
;;;499     
;;;500      /* Set GRAM write direction and BGR = 1 */
;;;501      /* I/D = 01 (Horizontal : increment, Vertical : decrement) */
;;;502      /* AM = 1 (address is updated in vertical writing direction) */
;;;503      LCD_WriteReg(R3, 0x1018);
0008b0  f2410118          MOV      r1,#0x1018
0008b4  2003              MOVS     r0,#3
0008b6  f7fffffe          BL       LCD_WriteReg
;;;504      LCD_SetDisplayWindow(00, 00, 239, 319);
0008ba  f240133f          MOV      r3,#0x13f
0008be  22ef              MOVS     r2,#0xef
0008c0  2100              MOVS     r1,#0
0008c2  4608              MOV      r0,r1
0008c4  f7fffffe          BL       LCD_SetDisplayWindow
;;;505    }
0008c8  e8bd8ff0          POP      {r4-r11,pc}
;;;506    
                          ENDP

                  LCD_ReadRAM PROC
;;;575    ************************************************************************************/
;;;576    u16 LCD_ReadRAM(void)
0008cc  2022              MOVS     r0,#0x22
;;;577    {
;;;578      /* Write 16-bit Index (then Read Reg) */
;;;579      LCD->LCD_REG = R34; /* Select GRAM Reg */
0008ce  f04f41d8          MOV      r1,#0x6c000000
0008d2  8008              STRH     r0,[r1,#0]
;;;580      /* Read 16-bit Reg */
;;;581      return LCD->LCD_RAM;
0008d4  4608              MOV      r0,r1
0008d6  8840              LDRH     r0,[r0,#2]
;;;582    }
0008d8  4770              BX       lr
;;;583    
                          ENDP

                  LCD_PowerOn PROC
;;;591    ************************************************************************************/
;;;592    void LCD_PowerOn(void)
0008da  b510              PUSH     {r4,lr}
;;;593    {
;;;594    /* Power On sequence ---------------------------------------------------------*/
;;;595      LCD_WriteReg(R16, 0x0000); /* SAP, BT[3:0], AP, DSTB, SLP, STB */
0008dc  2100              MOVS     r1,#0
0008de  2010              MOVS     r0,#0x10
0008e0  f7fffffe          BL       LCD_WriteReg
;;;596      LCD_WriteReg(R17, 0x0000); /* DC1[2:0], DC0[2:0], VC[2:0] */
0008e4  2100              MOVS     r1,#0
0008e6  2011              MOVS     r0,#0x11
0008e8  f7fffffe          BL       LCD_WriteReg
;;;597      LCD_WriteReg(R18, 0x0000); /* VREG1OUT voltage */
0008ec  2100              MOVS     r1,#0
0008ee  2012              MOVS     r0,#0x12
0008f0  f7fffffe          BL       LCD_WriteReg
;;;598      LCD_WriteReg(R19, 0x0000); /* VDV[4:0] for VCOM amplitude*/
0008f4  2100              MOVS     r1,#0
0008f6  2013              MOVS     r0,#0x13
0008f8  f7fffffe          BL       LCD_WriteReg
;;;599      Delay(20);             /* Dis-charge capacitor power voltage (200ms) */
0008fc  2014              MOVS     r0,#0x14
0008fe  f7fffffe          BL       Delay
;;;600      LCD_WriteReg(R16, 0x17B0); /* SAP, BT[3:0], AP, DSTB, SLP, STB */
000902  f24171b0          MOV      r1,#0x17b0
000906  2010              MOVS     r0,#0x10
000908  f7fffffe          BL       LCD_WriteReg
;;;601      LCD_WriteReg(R17, 0x0137); /* DC1[2:0], DC0[2:0], VC[2:0] */
00090c  f2401137          MOV      r1,#0x137
000910  2011              MOVS     r0,#0x11
000912  f7fffffe          BL       LCD_WriteReg
;;;602      Delay(5);              /* Delay 50 ms */
000916  2005              MOVS     r0,#5
000918  f7fffffe          BL       Delay
;;;603      LCD_WriteReg(R18, 0x0139); /* VREG1OUT voltage */
00091c  f2401139          MOV      r1,#0x139
000920  2012              MOVS     r0,#0x12
000922  f7fffffe          BL       LCD_WriteReg
;;;604      Delay(5);              /* Delay 50 ms */
000926  2005              MOVS     r0,#5
000928  f7fffffe          BL       Delay
;;;605      LCD_WriteReg(R19, 0x1d00); /* VDV[4:0] for VCOM amplitude */
00092c  f44f51e8          MOV      r1,#0x1d00
000930  2013              MOVS     r0,#0x13
000932  f7fffffe          BL       LCD_WriteReg
;;;606      LCD_WriteReg(R41, 0x0013); /* VCM[4:0] for VCOMH */
000936  2113              MOVS     r1,#0x13
000938  2029              MOVS     r0,#0x29
00093a  f7fffffe          BL       LCD_WriteReg
;;;607      Delay(5);              /* Delay 50 ms */
00093e  2005              MOVS     r0,#5
000940  f7fffffe          BL       Delay
;;;608      LCD_WriteReg(R7, 0x0173);  /* 262K color and display ON */
000944  f2401173          MOV      r1,#0x173
000948  2007              MOVS     r0,#7
00094a  f7fffffe          BL       LCD_WriteReg
;;;609    }
00094e  bd10              POP      {r4,pc}
;;;610    
                          ENDP

                  LCD_DisplayOn PROC
;;;618    ************************************************************************************/
;;;619    void LCD_DisplayOn(void)
000950  b500              PUSH     {lr}
;;;620    {
;;;621      LCD_WriteReg(R7, 0x0173); /* 262K color and display ON */
000952  f2401173          MOV      r1,#0x173
000956  2007              MOVS     r0,#7
000958  f7fffffe          BL       LCD_WriteReg
;;;622    }
00095c  bd00              POP      {pc}
;;;623    
                          ENDP

                  LCD_DisplayOff PROC
;;;631    ************************************************************************************/
;;;632    void LCD_DisplayOff(void)
00095e  b500              PUSH     {lr}
;;;633    {
;;;634      LCD_WriteReg(R7, 0x0); 
000960  2100              MOVS     r1,#0
000962  2007              MOVS     r0,#7
000964  f7fffffe          BL       LCD_WriteReg
;;;635    }
000968  bd00              POP      {pc}
;;;636    
                          ENDP


                          AREA ||.constdata||, DATA, READONLY, ALIGN=1

                  ASCII_Table
000000  00000000          DCW      0x0000,0x0000
000004  00000000          DCW      0x0000,0x0000
000008  00000000          DCW      0x0000,0x0000
00000c  00000000          DCW      0x0000,0x0000
000010  00000000          DCW      0x0000,0x0000
000014  00000000          DCW      0x0000,0x0000
000018  00000000          DCW      0x0000,0x0000
00001c  00000000          DCW      0x0000,0x0000
000020  00000000          DCW      0x0000,0x0000
000024  00000000          DCW      0x0000,0x0000
000028  00000000          DCW      0x0000,0x0000
00002c  00000000          DCW      0x0000,0x0000
000030  00000180          DCW      0x0000,0x0180
000034  01800180          DCW      0x0180,0x0180
000038  01800180          DCW      0x0180,0x0180
00003c  01800180          DCW      0x0180,0x0180
000040  01800180          DCW      0x0180,0x0180
000044  01800180          DCW      0x0180,0x0180
000048  01800180          DCW      0x0180,0x0180
00004c  00000000          DCW      0x0000,0x0000
000050  01800180          DCW      0x0180,0x0180
000054  00000000          DCW      0x0000,0x0000
000058  00000000          DCW      0x0000,0x0000
00005c  00000000          DCW      0x0000,0x0000
000060  00000000          DCW      0x0000,0x0000
000064  00cc00cc          DCW      0x00cc,0x00cc
000068  00cc00cc          DCW      0x00cc,0x00cc
00006c  00cc00cc          DCW      0x00cc,0x00cc
000070  00000000          DCW      0x0000,0x0000
000074  00000000          DCW      0x0000,0x0000
000078  00000000          DCW      0x0000,0x0000
00007c  00000000          DCW      0x0000,0x0000
000080  00000000          DCW      0x0000,0x0000
000084  00000000          DCW      0x0000,0x0000
000088  00000000          DCW      0x0000,0x0000
00008c  00000000          DCW      0x0000,0x0000
000090  00000000          DCW      0x0000,0x0000
000094  00000000          DCW      0x0000,0x0000
000098  00000000          DCW      0x0000,0x0000
00009c  0c600c60          DCW      0x0c60,0x0c60
0000a0  0c600630          DCW      0x0c60,0x0630
0000a4  06301ffe          DCW      0x0630,0x1ffe
0000a8  1ffe0630          DCW      0x1ffe,0x0630
0000ac  07380318          DCW      0x0738,0x0318
0000b0  1ffe1ffe          DCW      0x1ffe,0x1ffe
0000b4  03180318          DCW      0x0318,0x0318
0000b8  018c018c          DCW      0x018c,0x018c
0000bc  018c0000          DCW      0x018c,0x0000
0000c0  00000080          DCW      0x0000,0x0080
0000c4  03e00ff8          DCW      0x03e0,0x0ff8
0000c8  0e9c1c8c          DCW      0x0e9c,0x1c8c
0000cc  188c008c          DCW      0x188c,0x008c
0000d0  009801f8          DCW      0x0098,0x01f8
0000d4  07e00e80          DCW      0x07e0,0x0e80
0000d8  1c80188c          DCW      0x1c80,0x188c
0000dc  188c189c          DCW      0x188c,0x189c
0000e0  0cb80ff0          DCW      0x0cb8,0x0ff0
0000e4  03e00080          DCW      0x03e0,0x0080
0000e8  00800000          DCW      0x0080,0x0000
0000ec  00000000          DCW      0x0000,0x0000
0000f0  00000000          DCW      0x0000,0x0000
0000f4  0000180e          DCW      0x0000,0x180e
0000f8  0c1b0c11          DCW      0x0c1b,0x0c11
0000fc  06110611          DCW      0x0611,0x0611
000100  03110311          DCW      0x0311,0x0311
000104  019b018e          DCW      0x019b,0x018e
000108  38c06cc0          DCW      0x38c0,0x6cc0
00010c  44604460          DCW      0x4460,0x4460
000110  44304430          DCW      0x4430,0x4430
000114  44186c18          DCW      0x4418,0x6c18
000118  380c0000          DCW      0x380c,0x0000
00011c  00000000          DCW      0x0000,0x0000
000120  000001e0          DCW      0x0000,0x01e0
000124  03f00738          DCW      0x03f0,0x0738
000128  06180618          DCW      0x0618,0x0618
00012c  033001f0          DCW      0x0330,0x01f0
000130  00f000f8          DCW      0x00f0,0x00f8
000134  319c330e          DCW      0x319c,0x330e
000138  1e061c06          DCW      0x1e06,0x1c06
00013c  1c063f06          DCW      0x1c06,0x3f06
000140  73fc21f0          DCW      0x73fc,0x21f0
000144  00000000          DCW      0x0000,0x0000
000148  00000000          DCW      0x0000,0x0000
00014c  00000000          DCW      0x0000,0x0000
000150  00000000          DCW      0x0000,0x0000
000154  000c000c          DCW      0x000c,0x000c
000158  000c000c          DCW      0x000c,0x000c
00015c  000c000c          DCW      0x000c,0x000c
000160  00000000          DCW      0x0000,0x0000
000164  00000000          DCW      0x0000,0x0000
000168  00000000          DCW      0x0000,0x0000
00016c  00000000          DCW      0x0000,0x0000
000170  00000000          DCW      0x0000,0x0000
000174  00000000          DCW      0x0000,0x0000
000178  00000000          DCW      0x0000,0x0000
00017c  00000000          DCW      0x0000,0x0000
000180  00000200          DCW      0x0000,0x0200
000184  03000180          DCW      0x0300,0x0180
000188  00c000c0          DCW      0x00c0,0x00c0
00018c  00600060          DCW      0x0060,0x0060
000190  00300030          DCW      0x0030,0x0030
000194  00300030          DCW      0x0030,0x0030
000198  00300030          DCW      0x0030,0x0030
00019c  00300030          DCW      0x0030,0x0030
0001a0  00600060          DCW      0x0060,0x0060
0001a4  00c000c0          DCW      0x00c0,0x00c0
0001a8  01800300          DCW      0x0180,0x0300
0001ac  02000000          DCW      0x0200,0x0000
0001b0  00000020          DCW      0x0000,0x0020
0001b4  006000c0          DCW      0x0060,0x00c0
0001b8  01800180          DCW      0x0180,0x0180
0001bc  03000300          DCW      0x0300,0x0300
0001c0  06000600          DCW      0x0600,0x0600
0001c4  06000600          DCW      0x0600,0x0600
0001c8  06000600          DCW      0x0600,0x0600
0001cc  06000600          DCW      0x0600,0x0600
0001d0  03000300          DCW      0x0300,0x0300
0001d4  01800180          DCW      0x0180,0x0180
0001d8  00c00060          DCW      0x00c0,0x0060
0001dc  00200000          DCW      0x0020,0x0000
0001e0  00000000          DCW      0x0000,0x0000
0001e4  00000000          DCW      0x0000,0x0000
0001e8  00000000          DCW      0x0000,0x0000
0001ec  00c000c0          DCW      0x00c0,0x00c0
0001f0  06d807f8          DCW      0x06d8,0x07f8
0001f4  01e00330          DCW      0x01e0,0x0330
0001f8  07380000          DCW      0x0738,0x0000
0001fc  00000000          DCW      0x0000,0x0000
000200  00000000          DCW      0x0000,0x0000
000204  00000000          DCW      0x0000,0x0000
000208  00000000          DCW      0x0000,0x0000
00020c  00000000          DCW      0x0000,0x0000
000210  00000000          DCW      0x0000,0x0000
000214  00000000          DCW      0x0000,0x0000
000218  00000000          DCW      0x0000,0x0000
00021c  01800180          DCW      0x0180,0x0180
000220  01800180          DCW      0x0180,0x0180
000224  01803ffc          DCW      0x0180,0x3ffc
000228  3ffc0180          DCW      0x3ffc,0x0180
00022c  01800180          DCW      0x0180,0x0180
000230  01800180          DCW      0x0180,0x0180
000234  00000000          DCW      0x0000,0x0000
000238  00000000          DCW      0x0000,0x0000
00023c  00000000          DCW      0x0000,0x0000
000240  00000000          DCW      0x0000,0x0000
000244  00000000          DCW      0x0000,0x0000
000248  00000000          DCW      0x0000,0x0000
00024c  00000000          DCW      0x0000,0x0000
000250  00000000          DCW      0x0000,0x0000
000254  00000000          DCW      0x0000,0x0000
000258  00000000          DCW      0x0000,0x0000
00025c  00000000          DCW      0x0000,0x0000
000260  00000180          DCW      0x0000,0x0180
000264  01800100          DCW      0x0180,0x0100
000268  01000080          DCW      0x0100,0x0080
00026c  00000000          DCW      0x0000,0x0000
000270  00000000          DCW      0x0000,0x0000
000274  00000000          DCW      0x0000,0x0000
000278  00000000          DCW      0x0000,0x0000
00027c  00000000          DCW      0x0000,0x0000
000280  00000000          DCW      0x0000,0x0000
000284  00000000          DCW      0x0000,0x0000
000288  07e007e0          DCW      0x07e0,0x07e0
00028c  00000000          DCW      0x0000,0x0000
000290  00000000          DCW      0x0000,0x0000
000294  00000000          DCW      0x0000,0x0000
000298  00000000          DCW      0x0000,0x0000
00029c  00000000          DCW      0x0000,0x0000
0002a0  00000000          DCW      0x0000,0x0000
0002a4  00000000          DCW      0x0000,0x0000
0002a8  00000000          DCW      0x0000,0x0000
0002ac  00000000          DCW      0x0000,0x0000
0002b0  00000000          DCW      0x0000,0x0000
0002b4  00000000          DCW      0x0000,0x0000
0002b8  00000000          DCW      0x0000,0x0000
0002bc  00000000          DCW      0x0000,0x0000
0002c0  000000c0          DCW      0x0000,0x00c0
0002c4  00c00000          DCW      0x00c0,0x0000
0002c8  00000000          DCW      0x0000,0x0000
0002cc  00000000          DCW      0x0000,0x0000
0002d0  00000c00          DCW      0x0000,0x0c00
0002d4  0c000600          DCW      0x0c00,0x0600
0002d8  06000600          DCW      0x0600,0x0600
0002dc  03000300          DCW      0x0300,0x0300
0002e0  03000380          DCW      0x0300,0x0380
0002e4  01800180          DCW      0x0180,0x0180
0002e8  018000c0          DCW      0x0180,0x00c0
0002ec  00c000c0          DCW      0x00c0,0x00c0
0002f0  00600060          DCW      0x0060,0x0060
0002f4  00000000          DCW      0x0000,0x0000
0002f8  00000000          DCW      0x0000,0x0000
0002fc  00000000          DCW      0x0000,0x0000
000300  000003e0          DCW      0x0000,0x03e0
000304  07f00e38          DCW      0x07f0,0x0e38
000308  0c18180c          DCW      0x0c18,0x180c
00030c  180c180c          DCW      0x180c,0x180c
000310  180c180c          DCW      0x180c,0x180c
000314  180c180c          DCW      0x180c,0x180c
000318  180c180c          DCW      0x180c,0x180c
00031c  0c180e38          DCW      0x0c18,0x0e38
000320  07f003e0          DCW      0x07f0,0x03e0
000324  00000000          DCW      0x0000,0x0000
000328  00000000          DCW      0x0000,0x0000
00032c  00000000          DCW      0x0000,0x0000
000330  00000100          DCW      0x0000,0x0100
000334  018001c0          DCW      0x0180,0x01c0
000338  01f00198          DCW      0x01f0,0x0198
00033c  01880180          DCW      0x0188,0x0180
000340  01800180          DCW      0x0180,0x0180
000344  01800180          DCW      0x0180,0x0180
000348  01800180          DCW      0x0180,0x0180
00034c  01800180          DCW      0x0180,0x0180
000350  01800180          DCW      0x0180,0x0180
000354  00000000          DCW      0x0000,0x0000
000358  00000000          DCW      0x0000,0x0000
00035c  00000000          DCW      0x0000,0x0000
000360  000003e0          DCW      0x0000,0x03e0
000364  0ff80c18          DCW      0x0ff8,0x0c18
000368  180c180c          DCW      0x180c,0x180c
00036c  18001800          DCW      0x1800,0x1800
000370  0c000600          DCW      0x0c00,0x0600
000374  03000180          DCW      0x0300,0x0180
000378  00c00060          DCW      0x00c0,0x0060
00037c  00300018          DCW      0x0030,0x0018
000380  1ffc1ffc          DCW      0x1ffc,0x1ffc
000384  00000000          DCW      0x0000,0x0000
000388  00000000          DCW      0x0000,0x0000
00038c  00000000          DCW      0x0000,0x0000
000390  000001e0          DCW      0x0000,0x01e0
000394  07f80e18          DCW      0x07f8,0x0e18
000398  0c0c0c0c          DCW      0x0c0c,0x0c0c
00039c  0c000600          DCW      0x0c00,0x0600
0003a0  03c007c0          DCW      0x03c0,0x07c0
0003a4  0c001800          DCW      0x0c00,0x1800
0003a8  1800180c          DCW      0x1800,0x180c
0003ac  180c0c18          DCW      0x180c,0x0c18
0003b0  07f803e0          DCW      0x07f8,0x03e0
0003b4  00000000          DCW      0x0000,0x0000
0003b8  00000000          DCW      0x0000,0x0000
0003bc  00000000          DCW      0x0000,0x0000
0003c0  00000c00          DCW      0x0000,0x0c00
0003c4  0e000f00          DCW      0x0e00,0x0f00
0003c8  0f000d80          DCW      0x0f00,0x0d80
0003cc  0cc00c60          DCW      0x0cc0,0x0c60
0003d0  0c600c30          DCW      0x0c60,0x0c30
0003d4  0c180c0c          DCW      0x0c18,0x0c0c
0003d8  3ffc3ffc          DCW      0x3ffc,0x3ffc
0003dc  0c000c00          DCW      0x0c00,0x0c00
0003e0  0c000c00          DCW      0x0c00,0x0c00
0003e4  00000000          DCW      0x0000,0x0000
0003e8  00000000          DCW      0x0000,0x0000
0003ec  00000000          DCW      0x0000,0x0000
0003f0  00000ff8          DCW      0x0000,0x0ff8
0003f4  0ff80018          DCW      0x0ff8,0x0018
0003f8  0018000c          DCW      0x0018,0x000c
0003fc  03ec07fc          DCW      0x03ec,0x07fc
000400  0e1c1c00          DCW      0x0e1c,0x1c00
000404  18001800          DCW      0x1800,0x1800
000408  1800180c          DCW      0x1800,0x180c
00040c  0c1c0e18          DCW      0x0c1c,0x0e18
000410  07f803e0          DCW      0x07f8,0x03e0
000414  00000000          DCW      0x0000,0x0000
000418  00000000          DCW      0x0000,0x0000
00041c  00000000          DCW      0x0000,0x0000
000420  000007c0          DCW      0x0000,0x07c0
000424  0ff01c38          DCW      0x0ff0,0x1c38
000428  18180018          DCW      0x1818,0x0018
00042c  000c03cc          DCW      0x000c,0x03cc
000430  0fec0e3c          DCW      0x0fec,0x0e3c
000434  1c1c180c          DCW      0x1c1c,0x180c
000438  180c180c          DCW      0x180c,0x180c
00043c  1c180e38          DCW      0x1c18,0x0e38
000440  07f003e0          DCW      0x07f0,0x03e0
000444  00000000          DCW      0x0000,0x0000
000448  00000000          DCW      0x0000,0x0000
00044c  00000000          DCW      0x0000,0x0000
000450  00001ffc          DCW      0x0000,0x1ffc
000454  1ffc0c00          DCW      0x1ffc,0x0c00
000458  06000600          DCW      0x0600,0x0600
00045c  03000380          DCW      0x0300,0x0380
000460  018001c0          DCW      0x0180,0x01c0
000464  00c000e0          DCW      0x00c0,0x00e0
000468  00600060          DCW      0x0060,0x0060
00046c  00700030          DCW      0x0070,0x0030
000470  00300030          DCW      0x0030,0x0030
000474  00000000          DCW      0x0000,0x0000
000478  00000000          DCW      0x0000,0x0000
00047c  00000000          DCW      0x0000,0x0000
000480  000003e0          DCW      0x0000,0x03e0
000484  07f00e38          DCW      0x07f0,0x0e38
000488  0c180c18          DCW      0x0c18,0x0c18
00048c  0c180638          DCW      0x0c18,0x0638
000490  07f007f0          DCW      0x07f0,0x07f0
000494  0c18180c          DCW      0x0c18,0x180c
000498  180c180c          DCW      0x180c,0x180c
00049c  180c0c38          DCW      0x180c,0x0c38
0004a0  0ff803e0          DCW      0x0ff8,0x03e0
0004a4  00000000          DCW      0x0000,0x0000
0004a8  00000000          DCW      0x0000,0x0000
0004ac  00000000          DCW      0x0000,0x0000
0004b0  000003e0          DCW      0x0000,0x03e0
0004b4  07f00e38          DCW      0x07f0,0x0e38
0004b8  0c1c180c          DCW      0x0c1c,0x180c
0004bc  180c180c          DCW      0x180c,0x180c
0004c0  1c1c1e38          DCW      0x1c1c,0x1e38
0004c4  1bf819e0          DCW      0x1bf8,0x19e0
0004c8  18000c00          DCW      0x1800,0x0c00
0004cc  0c000e1c          DCW      0x0c00,0x0e1c
0004d0  07f801f0          DCW      0x07f8,0x01f0
0004d4  00000000          DCW      0x0000,0x0000
0004d8  00000000          DCW      0x0000,0x0000
0004dc  00000000          DCW      0x0000,0x0000
0004e0  00000000          DCW      0x0000,0x0000
0004e4  00000000          DCW      0x0000,0x0000
0004e8  00000000          DCW      0x0000,0x0000
0004ec  01800180          DCW      0x0180,0x0180
0004f0  00000000          DCW      0x0000,0x0000
0004f4  00000000          DCW      0x0000,0x0000
0004f8  00000000          DCW      0x0000,0x0000
0004fc  00000000          DCW      0x0000,0x0000
000500  01800180          DCW      0x0180,0x0180
000504  00000000          DCW      0x0000,0x0000
000508  00000000          DCW      0x0000,0x0000
00050c  00000000          DCW      0x0000,0x0000
000510  00000000          DCW      0x0000,0x0000
000514  00000000          DCW      0x0000,0x0000
000518  00000000          DCW      0x0000,0x0000
00051c  01800180          DCW      0x0180,0x0180
000520  00000000          DCW      0x0000,0x0000
000524  00000000          DCW      0x0000,0x0000
000528  00000000          DCW      0x0000,0x0000
00052c  00000000          DCW      0x0000,0x0000
000530  01800180          DCW      0x0180,0x0180
000534  01000100          DCW      0x0100,0x0100
000538  00800000          DCW      0x0080,0x0000
00053c  00000000          DCW      0x0000,0x0000
000540  00000000          DCW      0x0000,0x0000
000544  00000000          DCW      0x0000,0x0000
000548  00000000          DCW      0x0000,0x0000
00054c  00000000          DCW      0x0000,0x0000
000550  10001c00          DCW      0x1000,0x1c00
000554  0f8003e0          DCW      0x0f80,0x03e0
000558  00f80018          DCW      0x00f8,0x0018
00055c  00f803e0          DCW      0x00f8,0x03e0
000560  0f801c00          DCW      0x0f80,0x1c00
000564  10000000          DCW      0x1000,0x0000
000568  00000000          DCW      0x0000,0x0000
00056c  00000000          DCW      0x0000,0x0000
000570  00000000          DCW      0x0000,0x0000
000574  00000000          DCW      0x0000,0x0000
000578  00000000          DCW      0x0000,0x0000
00057c  00000000          DCW      0x0000,0x0000
000580  1ff80000          DCW      0x1ff8,0x0000
000584  00000000          DCW      0x0000,0x0000
000588  1ff80000          DCW      0x1ff8,0x0000
00058c  00000000          DCW      0x0000,0x0000
000590  00000000          DCW      0x0000,0x0000
000594  00000000          DCW      0x0000,0x0000
000598  00000000          DCW      0x0000,0x0000
00059c  00000000          DCW      0x0000,0x0000
0005a0  00000000          DCW      0x0000,0x0000
0005a4  00000000          DCW      0x0000,0x0000
0005a8  00000000          DCW      0x0000,0x0000
0005ac  00000000          DCW      0x0000,0x0000
0005b0  00080038          DCW      0x0008,0x0038
0005b4  01f007c0          DCW      0x01f0,0x07c0
0005b8  1f001800          DCW      0x1f00,0x1800
0005bc  1f0007c0          DCW      0x1f00,0x07c0
0005c0  01f00038          DCW      0x01f0,0x0038
0005c4  00080000          DCW      0x0008,0x0000
0005c8  00000000          DCW      0x0000,0x0000
0005cc  00000000          DCW      0x0000,0x0000
0005d0  000003e0          DCW      0x0000,0x03e0
0005d4  0ff80c18          DCW      0x0ff8,0x0c18
0005d8  180c180c          DCW      0x180c,0x180c
0005dc  18000c00          DCW      0x1800,0x0c00
0005e0  06000300          DCW      0x0600,0x0300
0005e4  018000c0          DCW      0x0180,0x00c0
0005e8  00c000c0          DCW      0x00c0,0x00c0
0005ec  00000000          DCW      0x0000,0x0000
0005f0  00c000c0          DCW      0x00c0,0x00c0
0005f4  00000000          DCW      0x0000,0x0000
0005f8  00000000          DCW      0x0000,0x0000
0005fc  00000000          DCW      0x0000,0x0000
000600  00000000          DCW      0x0000,0x0000
000604  07e01818          DCW      0x07e0,0x1818
000608  200429c2          DCW      0x2004,0x29c2
00060c  4a224411          DCW      0x4a22,0x4411
000610  44094409          DCW      0x4409,0x4409
000614  44092209          DCW      0x4409,0x2209
000618  13110ce2          DCW      0x1311,0x0ce2
00061c  40022004          DCW      0x4002,0x2004
000620  181807e0          DCW      0x1818,0x07e0
000624  00000000          DCW      0x0000,0x0000
000628  00000000          DCW      0x0000,0x0000
00062c  00000000          DCW      0x0000,0x0000
000630  00000380          DCW      0x0000,0x0380
000634  038006c0          DCW      0x0380,0x06c0
000638  06c006c0          DCW      0x06c0,0x06c0
00063c  0c600c60          DCW      0x0c60,0x0c60
000640  18301830          DCW      0x1830,0x1830
000644  18303ff8          DCW      0x1830,0x3ff8
000648  3ff8701c          DCW      0x3ff8,0x701c
00064c  600c600c          DCW      0x600c,0x600c
000650  c006c006          DCW      0xc006,0xc006
000654  00000000          DCW      0x0000,0x0000
000658  00000000          DCW      0x0000,0x0000
00065c  00000000          DCW      0x0000,0x0000
000660  000003fc          DCW      0x0000,0x03fc
000664  0ffc0c0c          DCW      0x0ffc,0x0c0c
000668  180c180c          DCW      0x180c,0x180c
00066c  180c0c0c          DCW      0x180c,0x0c0c
000670  07fc0ffc          DCW      0x07fc,0x0ffc
000674  180c300c          DCW      0x180c,0x300c
000678  300c300c          DCW      0x300c,0x300c
00067c  300c180c          DCW      0x300c,0x180c
000680  1ffc07fc          DCW      0x1ffc,0x07fc
000684  00000000          DCW      0x0000,0x0000
000688  00000000          DCW      0x0000,0x0000
00068c  00000000          DCW      0x0000,0x0000
000690  000007c0          DCW      0x0000,0x07c0
000694  1ff03838          DCW      0x1ff0,0x3838
000698  301c700c          DCW      0x301c,0x700c
00069c  60060006          DCW      0x6006,0x0006
0006a0  00060006          DCW      0x0006,0x0006
0006a4  00060006          DCW      0x0006,0x0006
0006a8  00066006          DCW      0x0006,0x6006
0006ac  700c301c          DCW      0x700c,0x301c
0006b0  1ff007e0          DCW      0x1ff0,0x07e0
0006b4  00000000          DCW      0x0000,0x0000
0006b8  00000000          DCW      0x0000,0x0000
0006bc  00000000          DCW      0x0000,0x0000
0006c0  000003fe          DCW      0x0000,0x03fe
0006c4  0ffe0e06          DCW      0x0ffe,0x0e06
0006c8  18061806          DCW      0x1806,0x1806
0006cc  30063006          DCW      0x3006,0x3006
0006d0  30063006          DCW      0x3006,0x3006
0006d4  30063006          DCW      0x3006,0x3006
0006d8  30061806          DCW      0x3006,0x1806
0006dc  18060e06          DCW      0x1806,0x0e06
0006e0  0ffe03fe          DCW      0x0ffe,0x03fe
0006e4  00000000          DCW      0x0000,0x0000
0006e8  00000000          DCW      0x0000,0x0000
0006ec  00000000          DCW      0x0000,0x0000
0006f0  00003ffc          DCW      0x0000,0x3ffc
0006f4  3ffc000c          DCW      0x3ffc,0x000c
0006f8  000c000c          DCW      0x000c,0x000c
0006fc  000c000c          DCW      0x000c,0x000c
000700  1ffc1ffc          DCW      0x1ffc,0x1ffc
000704  000c000c          DCW      0x000c,0x000c
000708  000c000c          DCW      0x000c,0x000c
00070c  000c000c          DCW      0x000c,0x000c
000710  3ffc3ffc          DCW      0x3ffc,0x3ffc
000714  00000000          DCW      0x0000,0x0000
000718  00000000          DCW      0x0000,0x0000
00071c  00000000          DCW      0x0000,0x0000
000720  00003ff8          DCW      0x0000,0x3ff8
000724  3ff80018          DCW      0x3ff8,0x0018
000728  00180018          DCW      0x0018,0x0018
00072c  00180018          DCW      0x0018,0x0018
000730  1ff81ff8          DCW      0x1ff8,0x1ff8
000734  00180018          DCW      0x0018,0x0018
000738  00180018          DCW      0x0018,0x0018
00073c  00180018          DCW      0x0018,0x0018
000740  00180018          DCW      0x0018,0x0018
000744  00000000          DCW      0x0000,0x0000
000748  00000000          DCW      0x0000,0x0000
00074c  00000000          DCW      0x0000,0x0000
000750  00000fe0          DCW      0x0000,0x0fe0
000754  3ff8783c          DCW      0x3ff8,0x783c
000758  600ee006          DCW      0x600e,0xe006
00075c  c0070003          DCW      0xc007,0x0003
000760  0003fe03          DCW      0x0003,0xfe03
000764  fe03c003          DCW      0xfe03,0xc003
000768  c007c006          DCW      0xc007,0xc006
00076c  c00ef03c          DCW      0xc00e,0xf03c
000770  3ff80fe0          DCW      0x3ff8,0x0fe0
000774  00000000          DCW      0x0000,0x0000
000778  00000000          DCW      0x0000,0x0000
00077c  00000000          DCW      0x0000,0x0000
000780  0000300c          DCW      0x0000,0x300c
000784  300c300c          DCW      0x300c,0x300c
000788  300c300c          DCW      0x300c,0x300c
00078c  300c300c          DCW      0x300c,0x300c
000790  3ffc3ffc          DCW      0x3ffc,0x3ffc
000794  300c300c          DCW      0x300c,0x300c
000798  300c300c          DCW      0x300c,0x300c
00079c  300c300c          DCW      0x300c,0x300c
0007a0  300c300c          DCW      0x300c,0x300c
0007a4  00000000          DCW      0x0000,0x0000
0007a8  00000000          DCW      0x0000,0x0000
0007ac  00000000          DCW      0x0000,0x0000
0007b0  00000180          DCW      0x0000,0x0180
0007b4  01800180          DCW      0x0180,0x0180
0007b8  01800180          DCW      0x0180,0x0180
0007bc  01800180          DCW      0x0180,0x0180
0007c0  01800180          DCW      0x0180,0x0180
0007c4  01800180          DCW      0x0180,0x0180
0007c8  01800180          DCW      0x0180,0x0180
0007cc  01800180          DCW      0x0180,0x0180
0007d0  01800180          DCW      0x0180,0x0180
0007d4  00000000          DCW      0x0000,0x0000
0007d8  00000000          DCW      0x0000,0x0000
0007dc  00000000          DCW      0x0000,0x0000
0007e0  00000600          DCW      0x0000,0x0600
0007e4  06000600          DCW      0x0600,0x0600
0007e8  06000600          DCW      0x0600,0x0600
0007ec  06000600          DCW      0x0600,0x0600
0007f0  06000600          DCW      0x0600,0x0600
0007f4  06000600          DCW      0x0600,0x0600
0007f8  06000618          DCW      0x0600,0x0618
0007fc  06180738          DCW      0x0618,0x0738
000800  03f001e0          DCW      0x03f0,0x01e0
000804  00000000          DCW      0x0000,0x0000
000808  00000000          DCW      0x0000,0x0000
00080c  00000000          DCW      0x0000,0x0000
000810  00003006          DCW      0x0000,0x3006
000814  18060c06          DCW      0x1806,0x0c06
000818  06060306          DCW      0x0606,0x0306
00081c  018600c6          DCW      0x0186,0x00c6
000820  00660076          DCW      0x0066,0x0076
000824  00de018e          DCW      0x00de,0x018e
000828  03060606          DCW      0x0306,0x0606
00082c  0c061806          DCW      0x0c06,0x1806
000830  30066006          DCW      0x3006,0x6006
000834  00000000          DCW      0x0000,0x0000
000838  00000000          DCW      0x0000,0x0000
00083c  00000000          DCW      0x0000,0x0000
000840  00000018          DCW      0x0000,0x0018
000844  00180018          DCW      0x0018,0x0018
000848  00180018          DCW      0x0018,0x0018
00084c  00180018          DCW      0x0018,0x0018
000850  00180018          DCW      0x0018,0x0018
000854  00180018          DCW      0x0018,0x0018
000858  00180018          DCW      0x0018,0x0018
00085c  00180018          DCW      0x0018,0x0018
000860  1ff81ff8          DCW      0x1ff8,0x1ff8
000864  00000000          DCW      0x0000,0x0000
000868  00000000          DCW      0x0000,0x0000
00086c  00000000          DCW      0x0000,0x0000
000870  0000e00e          DCW      0x0000,0xe00e
000874  f01ef01e          DCW      0xf01e,0xf01e
000878  f01ed836          DCW      0xf01e,0xd836
00087c  d836d836          DCW      0xd836,0xd836
000880  d836cc66          DCW      0xd836,0xcc66
000884  cc66cc66          DCW      0xcc66,0xcc66
000888  c6c6c6c6          DCW      0xc6c6,0xc6c6
00088c  c6c6c6c6          DCW      0xc6c6,0xc6c6
000890  c386c386          DCW      0xc386,0xc386
000894  00000000          DCW      0x0000,0x0000
000898  00000000          DCW      0x0000,0x0000
00089c  00000000          DCW      0x0000,0x0000
0008a0  0000300c          DCW      0x0000,0x300c
0008a4  301c303c          DCW      0x301c,0x303c
0008a8  303c306c          DCW      0x303c,0x306c
0008ac  306c30cc          DCW      0x306c,0x30cc
0008b0  30cc318c          DCW      0x30cc,0x318c
0008b4  330c330c          DCW      0x330c,0x330c
0008b8  360c360c          DCW      0x360c,0x360c
0008bc  3c0c3c0c          DCW      0x3c0c,0x3c0c
0008c0  380c300c          DCW      0x380c,0x300c
0008c4  00000000          DCW      0x0000,0x0000
0008c8  00000000          DCW      0x0000,0x0000
0008cc  00000000          DCW      0x0000,0x0000
0008d0  000007e0          DCW      0x0000,0x07e0
0008d4  1ff8381c          DCW      0x1ff8,0x381c
0008d8  700e6006          DCW      0x700e,0x6006
0008dc  c003c003          DCW      0xc003,0xc003
0008e0  c003c003          DCW      0xc003,0xc003
0008e4  c003c003          DCW      0xc003,0xc003
0008e8  c0036006          DCW      0xc003,0x6006
0008ec  700e381c          DCW      0x700e,0x381c
0008f0  1ff807e0          DCW      0x1ff8,0x07e0
0008f4  00000000          DCW      0x0000,0x0000
0008f8  00000000          DCW      0x0000,0x0000
0008fc  00000000          DCW      0x0000,0x0000
000900  00000ffc          DCW      0x0000,0x0ffc
000904  1ffc380c          DCW      0x1ffc,0x380c
000908  300c300c          DCW      0x300c,0x300c
00090c  300c300c          DCW      0x300c,0x300c
000910  180c1ffc          DCW      0x180c,0x1ffc
000914  07fc000c          DCW      0x07fc,0x000c
000918  000c000c          DCW      0x000c,0x000c
00091c  000c000c          DCW      0x000c,0x000c
000920  000c000c          DCW      0x000c,0x000c
000924  00000000          DCW      0x0000,0x0000
000928  00000000          DCW      0x0000,0x0000
00092c  00000000          DCW      0x0000,0x0000
000930  000007e0          DCW      0x0000,0x07e0
000934  1ff8381c          DCW      0x1ff8,0x381c
000938  700e6006          DCW      0x700e,0x6006
00093c  e003c003          DCW      0xe003,0xc003
000940  c003c003          DCW      0xc003,0xc003
000944  c003c003          DCW      0xc003,0xc003
000948  e0076306          DCW      0xe007,0x6306
00094c  3f0e3c1c          DCW      0x3f0e,0x3c1c
000950  3ff8f7e0          DCW      0x3ff8,0xf7e0
000954  c0000000          DCW      0xc000,0x0000
000958  00000000          DCW      0x0000,0x0000
00095c  00000000          DCW      0x0000,0x0000
000960  00000ffe          DCW      0x0000,0x0ffe
000964  1ffe3806          DCW      0x1ffe,0x3806
000968  30063006          DCW      0x3006,0x3006
00096c  30063806          DCW      0x3006,0x3806
000970  1ffe07fe          DCW      0x1ffe,0x07fe
000974  03060606          DCW      0x0306,0x0606
000978  0c061806          DCW      0x0c06,0x1806
00097c  18063006          DCW      0x1806,0x3006
000980  30066006          DCW      0x3006,0x6006
000984  00000000          DCW      0x0000,0x0000
000988  00000000          DCW      0x0000,0x0000
00098c  00000000          DCW      0x0000,0x0000
000990  000003e0          DCW      0x0000,0x03e0
000994  0ff80c1c          DCW      0x0ff8,0x0c1c
000998  180c180c          DCW      0x180c,0x180c
00099c  000c001c          DCW      0x000c,0x001c
0009a0  03f80fe0          DCW      0x03f8,0x0fe0
0009a4  1e003800          DCW      0x1e00,0x3800
0009a8  30063006          DCW      0x3006,0x3006
0009ac  300e1c1c          DCW      0x300e,0x1c1c
0009b0  0ff807e0          DCW      0x0ff8,0x07e0
0009b4  00000000          DCW      0x0000,0x0000
0009b8  00000000          DCW      0x0000,0x0000
0009bc  00000000          DCW      0x0000,0x0000
0009c0  00007ffe          DCW      0x0000,0x7ffe
0009c4  7ffe0180          DCW      0x7ffe,0x0180
0009c8  01800180          DCW      0x0180,0x0180
0009cc  01800180          DCW      0x0180,0x0180
0009d0  01800180          DCW      0x0180,0x0180
0009d4  01800180          DCW      0x0180,0x0180
0009d8  01800180          DCW      0x0180,0x0180
0009dc  01800180          DCW      0x0180,0x0180
0009e0  01800180          DCW      0x0180,0x0180
0009e4  00000000          DCW      0x0000,0x0000
0009e8  00000000          DCW      0x0000,0x0000
0009ec  00000000          DCW      0x0000,0x0000
0009f0  0000300c          DCW      0x0000,0x300c
0009f4  300c300c          DCW      0x300c,0x300c
0009f8  300c300c          DCW      0x300c,0x300c
0009fc  300c300c          DCW      0x300c,0x300c
000a00  300c300c          DCW      0x300c,0x300c
000a04  300c300c          DCW      0x300c,0x300c
000a08  300c300c          DCW      0x300c,0x300c
000a0c  300c1818          DCW      0x300c,0x1818
000a10  1ff807e0          DCW      0x1ff8,0x07e0
000a14  00000000          DCW      0x0000,0x0000
000a18  00000000          DCW      0x0000,0x0000
000a1c  00000000          DCW      0x0000,0x0000
000a20  00006003          DCW      0x0000,0x6003
000a24  30063006          DCW      0x3006,0x3006
000a28  3006180c          DCW      0x3006,0x180c
000a2c  180c180c          DCW      0x180c,0x180c
000a30  0c180c18          DCW      0x0c18,0x0c18
000a34  0e380630          DCW      0x0e38,0x0630
000a38  06300770          DCW      0x0630,0x0770
000a3c  03600360          DCW      0x0360,0x0360
000a40  01c001c0          DCW      0x01c0,0x01c0
000a44  00000000          DCW      0x0000,0x0000
000a48  00000000          DCW      0x0000,0x0000
000a4c  00000000          DCW      0x0000,0x0000
000a50  00006003          DCW      0x0000,0x6003
000a54  61c361c3          DCW      0x61c3,0x61c3
000a58  61c33366          DCW      0x61c3,0x3366
000a5c  33663366          DCW      0x3366,0x3366
000a60  33663366          DCW      0x3366,0x3366
000a64  33661b6c          DCW      0x3366,0x1b6c
000a68  1b6c1b6c          DCW      0x1b6c,0x1b6c
000a6c  1a2c1e3c          DCW      0x1a2c,0x1e3c
000a70  0e380e38          DCW      0x0e38,0x0e38
000a74  00000000          DCW      0x0000,0x0000
000a78  00000000          DCW      0x0000,0x0000
000a7c  00000000          DCW      0x0000,0x0000
000a80  0000e00f          DCW      0x0000,0xe00f
000a84  700c3018          DCW      0x700c,0x3018
000a88  18300c70          DCW      0x1830,0x0c70
000a8c  0e6007c0          DCW      0x0e60,0x07c0
000a90  03800380          DCW      0x0380,0x0380
000a94  03c006e0          DCW      0x03c0,0x06e0
000a98  0c701c30          DCW      0x0c70,0x1c30
000a9c  1818300c          DCW      0x1818,0x300c
000aa0  600ee007          DCW      0x600e,0xe007
000aa4  00000000          DCW      0x0000,0x0000
000aa8  00000000          DCW      0x0000,0x0000
000aac  00000000          DCW      0x0000,0x0000
000ab0  0000c003          DCW      0x0000,0xc003
000ab4  6006300c          DCW      0x6006,0x300c
000ab8  381c1838          DCW      0x381c,0x1838
000abc  0c300660          DCW      0x0c30,0x0660
000ac0  07e003c0          DCW      0x07e0,0x03c0
000ac4  01800180          DCW      0x0180,0x0180
000ac8  01800180          DCW      0x0180,0x0180
000acc  01800180          DCW      0x0180,0x0180
000ad0  01800180          DCW      0x0180,0x0180
000ad4  00000000          DCW      0x0000,0x0000
000ad8  00000000          DCW      0x0000,0x0000
000adc  00000000          DCW      0x0000,0x0000
000ae0  00007ffc          DCW      0x0000,0x7ffc
000ae4  7ffc6000          DCW      0x7ffc,0x6000
000ae8  30001800          DCW      0x3000,0x1800
000aec  0c000600          DCW      0x0c00,0x0600
000af0  03000180          DCW      0x0300,0x0180
000af4  00c00060          DCW      0x00c0,0x0060
000af8  00300018          DCW      0x0030,0x0018
000afc  000c0006          DCW      0x000c,0x0006
000b00  7ffe7ffe          DCW      0x7ffe,0x7ffe
000b04  00000000          DCW      0x0000,0x0000
000b08  00000000          DCW      0x0000,0x0000
000b0c  00000000          DCW      0x0000,0x0000
000b10  000003e0          DCW      0x0000,0x03e0
000b14  03e00060          DCW      0x03e0,0x0060
000b18  00600060          DCW      0x0060,0x0060
000b1c  00600060          DCW      0x0060,0x0060
000b20  00600060          DCW      0x0060,0x0060
000b24  00600060          DCW      0x0060,0x0060
000b28  00600060          DCW      0x0060,0x0060
000b2c  00600060          DCW      0x0060,0x0060
000b30  00600060          DCW      0x0060,0x0060
000b34  00600060          DCW      0x0060,0x0060
000b38  006003e0          DCW      0x0060,0x03e0
000b3c  03e00000          DCW      0x03e0,0x0000
000b40  00000030          DCW      0x0000,0x0030
000b44  00300060          DCW      0x0030,0x0060
000b48  00600060          DCW      0x0060,0x0060
000b4c  00c000c0          DCW      0x00c0,0x00c0
000b50  00c001c0          DCW      0x00c0,0x01c0
000b54  01800180          DCW      0x0180,0x0180
000b58  01800300          DCW      0x0180,0x0300
000b5c  03000300          DCW      0x0300,0x0300
000b60  06000600          DCW      0x0600,0x0600
000b64  00000000          DCW      0x0000,0x0000
000b68  00000000          DCW      0x0000,0x0000
000b6c  00000000          DCW      0x0000,0x0000
000b70  000003e0          DCW      0x0000,0x03e0
000b74  03e00300          DCW      0x03e0,0x0300
000b78  03000300          DCW      0x0300,0x0300
000b7c  03000300          DCW      0x0300,0x0300
000b80  03000300          DCW      0x0300,0x0300
000b84  03000300          DCW      0x0300,0x0300
000b88  03000300          DCW      0x0300,0x0300
000b8c  03000300          DCW      0x0300,0x0300
000b90  03000300          DCW      0x0300,0x0300
000b94  03000300          DCW      0x0300,0x0300
000b98  030003e0          DCW      0x0300,0x03e0
000b9c  03e00000          DCW      0x03e0,0x0000
000ba0  00000000          DCW      0x0000,0x0000
000ba4  01c001c0          DCW      0x01c0,0x01c0
000ba8  03600360          DCW      0x0360,0x0360
000bac  03600630          DCW      0x0360,0x0630
000bb0  06300c18          DCW      0x0630,0x0c18
000bb4  0c180000          DCW      0x0c18,0x0000
000bb8  00000000          DCW      0x0000,0x0000
000bbc  00000000          DCW      0x0000,0x0000
000bc0  00000000          DCW      0x0000,0x0000
000bc4  00000000          DCW      0x0000,0x0000
000bc8  00000000          DCW      0x0000,0x0000
000bcc  00000000          DCW      0x0000,0x0000
000bd0  00000000          DCW      0x0000,0x0000
000bd4  00000000          DCW      0x0000,0x0000
000bd8  00000000          DCW      0x0000,0x0000
000bdc  00000000          DCW      0x0000,0x0000
000be0  00000000          DCW      0x0000,0x0000
000be4  00000000          DCW      0x0000,0x0000
000be8  00000000          DCW      0x0000,0x0000
000bec  00000000          DCW      0x0000,0x0000
000bf0  0000ffff          DCW      0x0000,0xffff
000bf4  ffff0000          DCW      0xffff,0x0000
000bf8  00000000          DCW      0x0000,0x0000
000bfc  00000000          DCW      0x0000,0x0000
000c00  0000000c          DCW      0x0000,0x000c
000c04  000c000c          DCW      0x000c,0x000c
000c08  000c000c          DCW      0x000c,0x000c
000c0c  000c0000          DCW      0x000c,0x0000
000c10  00000000          DCW      0x0000,0x0000
000c14  00000000          DCW      0x0000,0x0000
000c18  00000000          DCW      0x0000,0x0000
000c1c  00000000          DCW      0x0000,0x0000
000c20  00000000          DCW      0x0000,0x0000
000c24  00000000          DCW      0x0000,0x0000
000c28  00000000          DCW      0x0000,0x0000
000c2c  00000000          DCW      0x0000,0x0000
000c30  00000000          DCW      0x0000,0x0000
000c34  00000000          DCW      0x0000,0x0000
000c38  00000000          DCW      0x0000,0x0000
000c3c  03f007f8          DCW      0x03f0,0x07f8
000c40  0c1c0c0c          DCW      0x0c1c,0x0c0c
000c44  0f000ff0          DCW      0x0f00,0x0ff0
000c48  0cf80c0c          DCW      0x0cf8,0x0c0c
000c4c  0c0c0f1c          DCW      0x0c0c,0x0f1c
000c50  0ff818f0          DCW      0x0ff8,0x18f0
000c54  00000000          DCW      0x0000,0x0000
000c58  00000000          DCW      0x0000,0x0000
000c5c  00000000          DCW      0x0000,0x0000
000c60  00000018          DCW      0x0000,0x0018
000c64  00180018          DCW      0x0018,0x0018
000c68  00180018          DCW      0x0018,0x0018
000c6c  03d80ff8          DCW      0x03d8,0x0ff8
000c70  0c381818          DCW      0x0c38,0x1818
000c74  18181818          DCW      0x1818,0x1818
000c78  18181818          DCW      0x1818,0x1818
000c7c  18180c38          DCW      0x1818,0x0c38
000c80  0ff803d8          DCW      0x0ff8,0x03d8
000c84  00000000          DCW      0x0000,0x0000
000c88  00000000          DCW      0x0000,0x0000
000c8c  00000000          DCW      0x0000,0x0000
000c90  00000000          DCW      0x0000,0x0000
000c94  00000000          DCW      0x0000,0x0000
000c98  00000000          DCW      0x0000,0x0000
000c9c  03c007f0          DCW      0x03c0,0x07f0
000ca0  0e300c18          DCW      0x0e30,0x0c18
000ca4  00180018          DCW      0x0018,0x0018
000ca8  00180018          DCW      0x0018,0x0018
000cac  0c180e30          DCW      0x0c18,0x0e30
000cb0  07f003c0          DCW      0x07f0,0x03c0
000cb4  00000000          DCW      0x0000,0x0000
000cb8  00000000          DCW      0x0000,0x0000
000cbc  00000000          DCW      0x0000,0x0000
000cc0  00001800          DCW      0x0000,0x1800
000cc4  18001800          DCW      0x1800,0x1800
000cc8  18001800          DCW      0x1800,0x1800
000ccc  1bc01ff0          DCW      0x1bc0,0x1ff0
000cd0  1c301818          DCW      0x1c30,0x1818
000cd4  18181818          DCW      0x1818,0x1818
000cd8  18181818          DCW      0x1818,0x1818
000cdc  18181c30          DCW      0x1818,0x1c30
000ce0  1ff01bc0          DCW      0x1ff0,0x1bc0
000ce4  00000000          DCW      0x0000,0x0000
000ce8  00000000          DCW      0x0000,0x0000
000cec  00000000          DCW      0x0000,0x0000
000cf0  00000000          DCW      0x0000,0x0000
000cf4  00000000          DCW      0x0000,0x0000
000cf8  00000000          DCW      0x0000,0x0000
000cfc  03c00ff0          DCW      0x03c0,0x0ff0
000d00  0c301818          DCW      0x0c30,0x1818
000d04  1ff81ff8          DCW      0x1ff8,0x1ff8
000d08  00180018          DCW      0x0018,0x0018
000d0c  18381c30          DCW      0x1838,0x1c30
000d10  0ff007c0          DCW      0x0ff0,0x07c0
000d14  00000000          DCW      0x0000,0x0000
000d18  00000000          DCW      0x0000,0x0000
000d1c  00000000          DCW      0x0000,0x0000
000d20  00000f80          DCW      0x0000,0x0f80
000d24  0fc000c0          DCW      0x0fc0,0x00c0
000d28  00c000c0          DCW      0x00c0,0x00c0
000d2c  07f007f0          DCW      0x07f0,0x07f0
000d30  00c000c0          DCW      0x00c0,0x00c0
000d34  00c000c0          DCW      0x00c0,0x00c0
000d38  00c000c0          DCW      0x00c0,0x00c0
000d3c  00c000c0          DCW      0x00c0,0x00c0
000d40  00c000c0          DCW      0x00c0,0x00c0
000d44  00000000          DCW      0x0000,0x0000
000d48  00000000          DCW      0x0000,0x0000
000d4c  00000000          DCW      0x0000,0x0000
000d50  00000000          DCW      0x0000,0x0000
000d54  00000000          DCW      0x0000,0x0000
000d58  00000000          DCW      0x0000,0x0000
000d5c  0de00ff8          DCW      0x0de0,0x0ff8
000d60  0e180c0c          DCW      0x0e18,0x0c0c
000d64  0c0c0c0c          DCW      0x0c0c,0x0c0c
000d68  0c0c0c0c          DCW      0x0c0c,0x0c0c
000d6c  0c0c0e18          DCW      0x0c0c,0x0e18
000d70  0ff80de0          DCW      0x0ff8,0x0de0
000d74  0c000c0c          DCW      0x0c00,0x0c0c
000d78  061c07f8          DCW      0x061c,0x07f8
000d7c  01f00000          DCW      0x01f0,0x0000
000d80  00000018          DCW      0x0000,0x0018
000d84  00180018          DCW      0x0018,0x0018
000d88  00180018          DCW      0x0018,0x0018
000d8c  07d80ff8          DCW      0x07d8,0x0ff8
000d90  1c381818          DCW      0x1c38,0x1818
000d94  18181818          DCW      0x1818,0x1818
000d98  18181818          DCW      0x1818,0x1818
000d9c  18181818          DCW      0x1818,0x1818
000da0  18181818          DCW      0x1818,0x1818
000da4  00000000          DCW      0x0000,0x0000
000da8  00000000          DCW      0x0000,0x0000
000dac  00000000          DCW      0x0000,0x0000
000db0  000000c0          DCW      0x0000,0x00c0
000db4  00c00000          DCW      0x00c0,0x0000
000db8  00000000          DCW      0x0000,0x0000
000dbc  00c000c0          DCW      0x00c0,0x00c0
000dc0  00c000c0          DCW      0x00c0,0x00c0
000dc4  00c000c0          DCW      0x00c0,0x00c0
000dc8  00c000c0          DCW      0x00c0,0x00c0
000dcc  00c000c0          DCW      0x00c0,0x00c0
000dd0  00c000c0          DCW      0x00c0,0x00c0
000dd4  00000000          DCW      0x0000,0x0000
000dd8  00000000          DCW      0x0000,0x0000
000ddc  00000000          DCW      0x0000,0x0000
000de0  000000c0          DCW      0x0000,0x00c0
000de4  00c00000          DCW      0x00c0,0x0000
000de8  00000000          DCW      0x0000,0x0000
000dec  00c000c0          DCW      0x00c0,0x00c0
000df0  00c000c0          DCW      0x00c0,0x00c0
000df4  00c000c0          DCW      0x00c0,0x00c0
000df8  00c000c0          DCW      0x00c0,0x00c0
000dfc  00c000c0          DCW      0x00c0,0x00c0
000e00  00c000c0          DCW      0x00c0,0x00c0
000e04  00c000c0          DCW      0x00c0,0x00c0
000e08  00c000f8          DCW      0x00c0,0x00f8
000e0c  00780000          DCW      0x0078,0x0000
000e10  0000000c          DCW      0x0000,0x000c
000e14  000c000c          DCW      0x000c,0x000c
000e18  000c000c          DCW      0x000c,0x000c
000e1c  0c0c060c          DCW      0x0c0c,0x060c
000e20  030c018c          DCW      0x030c,0x018c
000e24  00cc006c          DCW      0x00cc,0x006c
000e28  00fc019c          DCW      0x00fc,0x019c
000e2c  038c030c          DCW      0x038c,0x030c
000e30  060c0c0c          DCW      0x060c,0x0c0c
000e34  00000000          DCW      0x0000,0x0000
000e38  00000000          DCW      0x0000,0x0000
000e3c  00000000          DCW      0x0000,0x0000
000e40  000000c0          DCW      0x0000,0x00c0
000e44  00c000c0          DCW      0x00c0,0x00c0
000e48  00c000c0          DCW      0x00c0,0x00c0
000e4c  00c000c0          DCW      0x00c0,0x00c0
000e50  00c000c0          DCW      0x00c0,0x00c0
000e54  00c000c0          DCW      0x00c0,0x00c0
000e58  00c000c0          DCW      0x00c0,0x00c0
000e5c  00c000c0          DCW      0x00c0,0x00c0
000e60  00c000c0          DCW      0x00c0,0x00c0
000e64  00000000          DCW      0x0000,0x0000
000e68  00000000          DCW      0x0000,0x0000
000e6c  00000000          DCW      0x0000,0x0000
000e70  00000000          DCW      0x0000,0x0000
000e74  00000000          DCW      0x0000,0x0000
000e78  00000000          DCW      0x0000,0x0000
000e7c  3c7c7eff          DCW      0x3c7c,0x7eff
000e80  e3c7c183          DCW      0xe3c7,0xc183
000e84  c183c183          DCW      0xc183,0xc183
000e88  c183c183          DCW      0xc183,0xc183
000e8c  c183c183          DCW      0xc183,0xc183
000e90  c183c183          DCW      0xc183,0xc183
000e94  00000000          DCW      0x0000,0x0000
000e98  00000000          DCW      0x0000,0x0000
000e9c  00000000          DCW      0x0000,0x0000
000ea0  00000000          DCW      0x0000,0x0000
000ea4  00000000          DCW      0x0000,0x0000
000ea8  00000000          DCW      0x0000,0x0000
000eac  07980ff8          DCW      0x0798,0x0ff8
000eb0  1c381818          DCW      0x1c38,0x1818
000eb4  18181818          DCW      0x1818,0x1818
000eb8  18181818          DCW      0x1818,0x1818
000ebc  18181818          DCW      0x1818,0x1818
000ec0  18181818          DCW      0x1818,0x1818
000ec4  00000000          DCW      0x0000,0x0000
000ec8  00000000          DCW      0x0000,0x0000
000ecc  00000000          DCW      0x0000,0x0000
000ed0  00000000          DCW      0x0000,0x0000
000ed4  00000000          DCW      0x0000,0x0000
000ed8  00000000          DCW      0x0000,0x0000
000edc  03c00ff0          DCW      0x03c0,0x0ff0
000ee0  0c301818          DCW      0x0c30,0x1818
000ee4  18181818          DCW      0x1818,0x1818
000ee8  18181818          DCW      0x1818,0x1818
000eec  18180c30          DCW      0x1818,0x0c30
000ef0  0ff003c0          DCW      0x0ff0,0x03c0
000ef4  00000000          DCW      0x0000,0x0000
000ef8  00000000          DCW      0x0000,0x0000
000efc  00000000          DCW      0x0000,0x0000
000f00  00000000          DCW      0x0000,0x0000
000f04  00000000          DCW      0x0000,0x0000
000f08  00000000          DCW      0x0000,0x0000
000f0c  03d80ff8          DCW      0x03d8,0x0ff8
000f10  0c381818          DCW      0x0c38,0x1818
000f14  18181818          DCW      0x1818,0x1818
000f18  18181818          DCW      0x1818,0x1818
000f1c  18180c38          DCW      0x1818,0x0c38
000f20  0ff803d8          DCW      0x0ff8,0x03d8
000f24  00180018          DCW      0x0018,0x0018
000f28  00180018          DCW      0x0018,0x0018
000f2c  00180000          DCW      0x0018,0x0000
000f30  00000000          DCW      0x0000,0x0000
000f34  00000000          DCW      0x0000,0x0000
000f38  00000000          DCW      0x0000,0x0000
000f3c  1bc01ff0          DCW      0x1bc0,0x1ff0
000f40  1c301818          DCW      0x1c30,0x1818
000f44  18181818          DCW      0x1818,0x1818
000f48  18181818          DCW      0x1818,0x1818
000f4c  18181c30          DCW      0x1818,0x1c30
000f50  1ff01bc0          DCW      0x1ff0,0x1bc0
000f54  18001800          DCW      0x1800,0x1800
000f58  18001800          DCW      0x1800,0x1800
000f5c  18000000          DCW      0x1800,0x0000
000f60  00000000          DCW      0x0000,0x0000
000f64  00000000          DCW      0x0000,0x0000
000f68  00000000          DCW      0x0000,0x0000
000f6c  07b003f0          DCW      0x07b0,0x03f0
000f70  00700030          DCW      0x0070,0x0030
000f74  00300030          DCW      0x0030,0x0030
000f78  00300030          DCW      0x0030,0x0030
000f7c  00300030          DCW      0x0030,0x0030
000f80  00300030          DCW      0x0030,0x0030
000f84  00000000          DCW      0x0000,0x0000
000f88  00000000          DCW      0x0000,0x0000
000f8c  00000000          DCW      0x0000,0x0000
000f90  00000000          DCW      0x0000,0x0000
000f94  00000000          DCW      0x0000,0x0000
000f98  00000000          DCW      0x0000,0x0000
000f9c  03e003f0          DCW      0x03e0,0x03f0
000fa0  0e380c18          DCW      0x0e38,0x0c18
000fa4  003803f0          DCW      0x0038,0x03f0
000fa8  07c00c00          DCW      0x07c0,0x0c00
000fac  0c180e38          DCW      0x0c18,0x0e38
000fb0  07f003e0          DCW      0x07f0,0x03e0
000fb4  00000000          DCW      0x0000,0x0000
000fb8  00000000          DCW      0x0000,0x0000
000fbc  00000000          DCW      0x0000,0x0000
000fc0  00000000          DCW      0x0000,0x0000
000fc4  008000c0          DCW      0x0080,0x00c0
000fc8  00c000c0          DCW      0x00c0,0x00c0
000fcc  07f007f0          DCW      0x07f0,0x07f0
000fd0  00c000c0          DCW      0x00c0,0x00c0
000fd4  00c000c0          DCW      0x00c0,0x00c0
000fd8  00c000c0          DCW      0x00c0,0x00c0
000fdc  00c000c0          DCW      0x00c0,0x00c0
000fe0  07c00780          DCW      0x07c0,0x0780
000fe4  00000000          DCW      0x0000,0x0000
000fe8  00000000          DCW      0x0000,0x0000
000fec  00000000          DCW      0x0000,0x0000
000ff0  00000000          DCW      0x0000,0x0000
000ff4  00000000          DCW      0x0000,0x0000
000ff8  00000000          DCW      0x0000,0x0000
000ffc  18181818          DCW      0x1818,0x1818
001000  18181818          DCW      0x1818,0x1818
001004  18181818          DCW      0x1818,0x1818
001008  18181818          DCW      0x1818,0x1818
00100c  18181c38          DCW      0x1818,0x1c38
001010  1ff019e0          DCW      0x1ff0,0x19e0
001014  00000000          DCW      0x0000,0x0000
001018  00000000          DCW      0x0000,0x0000
00101c  00000000          DCW      0x0000,0x0000
001020  00000000          DCW      0x0000,0x0000
001024  00000000          DCW      0x0000,0x0000
001028  00000000          DCW      0x0000,0x0000
00102c  180c0c18          DCW      0x180c,0x0c18
001030  0c180c18          DCW      0x0c18,0x0c18
001034  06300630          DCW      0x0630,0x0630
001038  06300360          DCW      0x0630,0x0360
00103c  03600360          DCW      0x0360,0x0360
001040  01c001c0          DCW      0x01c0,0x01c0
001044  00000000          DCW      0x0000,0x0000
001048  00000000          DCW      0x0000,0x0000
00104c  00000000          DCW      0x0000,0x0000
001050  00000000          DCW      0x0000,0x0000
001054  00000000          DCW      0x0000,0x0000
001058  00000000          DCW      0x0000,0x0000
00105c  41c141c1          DCW      0x41c1,0x41c1
001060  61c36363          DCW      0x61c3,0x6363
001064  63636363          DCW      0x6363,0x6363
001068  36363636          DCW      0x3636,0x3636
00106c  36361c1c          DCW      0x3636,0x1c1c
001070  1c1c1c1c          DCW      0x1c1c,0x1c1c
001074  00000000          DCW      0x0000,0x0000
001078  00000000          DCW      0x0000,0x0000
00107c  00000000          DCW      0x0000,0x0000
001080  00000000          DCW      0x0000,0x0000
001084  00000000          DCW      0x0000,0x0000
001088  00000000          DCW      0x0000,0x0000
00108c  381c1c38          DCW      0x381c,0x1c38
001090  0c300660          DCW      0x0c30,0x0660
001094  03600360          DCW      0x0360,0x0360
001098  03600360          DCW      0x0360,0x0360
00109c  06600c30          DCW      0x0660,0x0c30
0010a0  1c38381c          DCW      0x1c38,0x381c
0010a4  00000000          DCW      0x0000,0x0000
0010a8  00000000          DCW      0x0000,0x0000
0010ac  00000000          DCW      0x0000,0x0000
0010b0  00000000          DCW      0x0000,0x0000
0010b4  00000000          DCW      0x0000,0x0000
0010b8  00000000          DCW      0x0000,0x0000
0010bc  30181830          DCW      0x3018,0x1830
0010c0  18301870          DCW      0x1830,0x1870
0010c4  0c600c60          DCW      0x0c60,0x0c60
0010c8  0ce006c0          DCW      0x0ce0,0x06c0
0010cc  06c00380          DCW      0x06c0,0x0380
0010d0  03800380          DCW      0x0380,0x0380
0010d4  01800180          DCW      0x0180,0x0180
0010d8  01c000f0          DCW      0x01c0,0x00f0
0010dc  00700000          DCW      0x0070,0x0000
0010e0  00000000          DCW      0x0000,0x0000
0010e4  00000000          DCW      0x0000,0x0000
0010e8  00000000          DCW      0x0000,0x0000
0010ec  1ffc1ffc          DCW      0x1ffc,0x1ffc
0010f0  0c000600          DCW      0x0c00,0x0600
0010f4  03000180          DCW      0x0300,0x0180
0010f8  00c00060          DCW      0x00c0,0x0060
0010fc  00300018          DCW      0x0030,0x0018
001100  1ffc1ffc          DCW      0x1ffc,0x1ffc
001104  00000000          DCW      0x0000,0x0000
001108  00000000          DCW      0x0000,0x0000
00110c  00000000          DCW      0x0000,0x0000
001110  00000300          DCW      0x0000,0x0300
001114  018000c0          DCW      0x0180,0x00c0
001118  00c000c0          DCW      0x00c0,0x00c0
00111c  00c000c0          DCW      0x00c0,0x00c0
001120  00c00060          DCW      0x00c0,0x0060
001124  00600030          DCW      0x0060,0x0030
001128  00600040          DCW      0x0060,0x0040
00112c  00c000c0          DCW      0x00c0,0x00c0
001130  00c000c0          DCW      0x00c0,0x00c0
001134  00c000c0          DCW      0x00c0,0x00c0
001138  01800300          DCW      0x0180,0x0300
00113c  00000000          DCW      0x0000,0x0000
001140  00000180          DCW      0x0000,0x0180
001144  01800180          DCW      0x0180,0x0180
001148  01800180          DCW      0x0180,0x0180
00114c  01800180          DCW      0x0180,0x0180
001150  01800180          DCW      0x0180,0x0180
001154  01800180          DCW      0x0180,0x0180
001158  01800180          DCW      0x0180,0x0180
00115c  01800180          DCW      0x0180,0x0180
001160  01800180          DCW      0x0180,0x0180
001164  01800180          DCW      0x0180,0x0180
001168  01800180          DCW      0x0180,0x0180
00116c  01800000          DCW      0x0180,0x0000
001170  00000060          DCW      0x0000,0x0060
001174  00c001c0          DCW      0x00c0,0x01c0
001178  01800180          DCW      0x0180,0x0180
00117c  01800180          DCW      0x0180,0x0180
001180  01800300          DCW      0x0180,0x0300
001184  03000600          DCW      0x0300,0x0600
001188  03000100          DCW      0x0300,0x0100
00118c  01800180          DCW      0x0180,0x0180
001190  01800180          DCW      0x0180,0x0180
001194  01800180          DCW      0x0180,0x0180
001198  00c00060          DCW      0x00c0,0x0060
00119c  00000000          DCW      0x0000,0x0000
0011a0  00000000          DCW      0x0000,0x0000
0011a4  00000000          DCW      0x0000,0x0000
0011a8  00000000          DCW      0x0000,0x0000
0011ac  00000000          DCW      0x0000,0x0000
0011b0  10f01ff8          DCW      0x10f0,0x1ff8
0011b4  0f080000          DCW      0x0f08,0x0000
0011b8  00000000          DCW      0x0000,0x0000
0011bc  00000000          DCW      0x0000,0x0000
0011c0  00000000          DCW      0x0000,0x0000
0011c4  00000000          DCW      0x0000,0x0000
0011c8  00000000          DCW      0x0000,0x0000
0011cc  00000000          DCW      0x0000,0x0000

                          AREA ||.data||, DATA, ALIGN=1

                  Chinese_Table
000000  00001dc0          DCB      0x00,0x00,0x1d,0xc0
000004  1dc03bff          DCB      0x1d,0xc0,0x3b,0xff
000008  3bfe7f0e          DCB      0x3b,0xfe,0x7f,0x0e
00000c  ff6efe60          DCB      0xff,0x6e,0xfe,0x60
000010  39fc3bfc          DCB      0x39,0xfc,0x3b,0xfc
000014  3f6e3f67          DCB      0x3f,0x6e,0x3f,0x67
000018  3e673860          DCB      0x3e,0x67,0x38,0x60
00001c  39e00180          DCB      0x39,0xe0,0x01,0x80
000020  00001c00          DCB      0x00,0x00,0x1c,0x00
000024  19ff39ff          DCB      0x19,0xff,0x39,0xff
000028  381cff38          DCB      0x38,0x1c,0xff,0x38
00002c  37387638          DCB      0x37,0x38,0x76,0x38
000030  7fff7e38          DCB      0x7f,0xff,0x7e,0x38
000034  3c381e38          DCB      0x3c,0x38,0x1e,0x38
000038  3f387738          DCB      0x3f,0x38,0x77,0x38
00003c  e0f00000          DCB      0xe0,0xf0,0x00,0x00
000040  000003f0          DCB      0x00,0x00,0x03,0xf0
000044  1c400440          DCB      0x1c,0x40,0x04,0x40
000048  04400440          DCB      0x04,0x40,0x04,0x40
00004c  07fc7c40          DCB      0x07,0xfc,0x7c,0x40
000050  04400440          DCB      0x04,0x40,0x04,0x40
000054  08400840          DCB      0x08,0x40,0x08,0x40
000058  10402040          DCB      0x10,0x40,0x20,0x40
00005c  40400000          DCB      0x40,0x40,0x00,0x00
000060  02001240          DCB      0x02,0x00,0x12,0x40
000064  12201200          DCB      0x12,0x20,0x12,0x00
000068  13f83c00          DCB      0x13,0xf8,0x3c,0x00
00006c  046007a0          DCB      0x04,0x60,0x07,0xa0
000070  08200c40          DCB      0x08,0x20,0x0c,0x40
000074  12802180          DCB      0x12,0x80,0x21,0x80
000078  42408c20          DCB      0x42,0x40,0x8c,0x20
00007c  301c0000          DCB      0x30,0x1c,0x00,0x00
000080  10001038          DCB      0x10,0x00,0x10,0x38
000084  11c01100          DCB      0x11,0xc0,0x11,0x00
000088  1d007130          DCB      0x1d,0x00,0x71,0x30
00008c  19d03510          DCB      0x19,0xd0,0x35,0x10
000090  52a052a0          DCB      0x52,0xa0,0x52,0xa0
000094  92401240          DCB      0x92,0x40,0x12,0x40
000098  14a0151c          DCB      0x14,0xa0,0x15,0x1c
00009c  1a000000          DCB      0x1a,0x00,0x00,0x00
0000a0  02000100          DCB      0x02,0x00,0x01,0x00
0000a4  01fc3e08          DCB      0x01,0xfc,0x3e,0x08
0000a8  21e00e40          DCB      0x21,0xe0,0x0e,0x40
0000ac  00800100          DCB      0x00,0x80,0x01,0x00
0000b0  00fc7f80          DCB      0x00,0xfc,0x7f,0x80
0000b4  00800080          DCB      0x00,0x80,0x00,0x80
0000b8  00800280          DCB      0x00,0x80,0x02,0x80
0000bc  01000000          DCB      0x01,0x00,0x00,0x00
0000c0  11101110          DCB      0x11,0x10,0x11,0x10
0000c4  11fc1320          DCB      0x11,0xfc,0x13,0x20
0000c8  1df07310          DCB      0x1d,0xf0,0x73,0x10
0000cc  1a703790          DCB      0x1a,0x70,0x37,0x90
0000d0  527053c0          DCB      0x52,0x70,0x53,0xc0
0000d4  907c17a0          DCB      0x90,0x7c,0x17,0xa0
0000d8  11101208          DCB      0x11,0x10,0x12,0x08
0000dc  140e0000          DCB      0x14,0x0e,0x00,0x00
0000e0  000421c4          DCB      0x00,0x04,0x21,0xc4
0000e4  16440454          DCB      0x16,0x44,0x04,0x54
0000e8  05544554          DCB      0x05,0x54,0x45,0x54
0000ec  25541554          DCB      0x25,0x54,0x15,0x54
0000f0  15542554          DCB      0x15,0x54,0x25,0x54
0000f4  2284c244          DCB      0x22,0x84,0xc2,0x44
0000f8  4454080c          DCB      0x44,0x54,0x08,0x0c
0000fc  10040000          DCB      0x10,0x04,0x00,0x00
000100  00402050          DCB      0x00,0x40,0x20,0x50
000104  10481040          DCB      0x10,0x48,0x10,0x40
000108  007807c0          DCB      0x00,0x78,0x07,0xc0
00010c  704010c0          DCB      0x70,0x40,0x10,0xc0
000110  17401120          DCB      0x17,0x40,0x11,0x20
000114  11201554          DCB      0x11,0x20,0x15,0x54
000118  1994160c          DCB      0x19,0x94,0x16,0x0c
00011c  00040000          DCB      0x00,0x04,0x00,0x00
000120  00000630          DCB      0x00,0x00,0x06,0x30
000124  38d00890          DCB      0x38,0xd0,0x08,0x90
000128  0eb078c0          DCB      0x0e,0xb0,0x78,0xc0
00012c  0c381bc0          DCB      0x0c,0x38,0x1b,0xc0
000130  28404878          DCB      0x28,0x40,0x48,0x78
000134  89c00840          DCB      0x89,0xc0,0x08,0x40
000138  087c0b80          DCB      0x08,0x7c,0x0b,0x80
00013c  08000000          DCB      0x08,0x00,0x00,0x00
000140  010000f8          DCB      0x01,0x00,0x00,0xf8
000144  1f0010e0          DCB      0x1f,0x00,0x10,0xe0
000148  17401040          DCB      0x17,0x40,0x10,0x40
00014c  1180107c          DCB      0x11,0x80,0x10,0x7c
000150  2f882080          DCB      0x2f,0x88,0x20,0x80
000154  20802080          DCB      0x20,0x80,0x20,0x80
000158  40804280          DCB      0x40,0x80,0x42,0x80
00015c  81000000          DCB      0x81,0x00,0x00,0x00
000160  02000200          DCB      0x02,0x00,0x02,0x00
000164  020003e0          DCB      0x02,0x00,0x03,0xe0
000168  3e202220          DCB      0x3e,0x20,0x22,0x20
00016c  23a02e20          DCB      0x23,0xa0,0x2e,0x20
000170  222023e0          DCB      0x22,0x20,0x23,0xe0
000174  3e000204          DCB      0x3e,0x00,0x02,0x04
000178  020401fc          DCB      0x02,0x04,0x01,0xfc
00017c  00000000          DCB      0x00,0x00,0x00,0x00
000180  000001f0          DCB      0x00,0x00,0x01,0xf0
000184  1e200040          DCB      0x1e,0x20,0x00,0x40
000188  02800100          DCB      0x02,0x80,0x01,0x00
00018c  01fe7f00          DCB      0x01,0xfe,0x7f,0x00
000190  01000100          DCB      0x01,0x00,0x01,0x00
000194  01000100          DCB      0x01,0x00,0x01,0x00
000198  09000500          DCB      0x09,0x00,0x05,0x00
00019c  02000000          DCB      0x02,0x00,0x00,0x00
                  TextColor
0001a0  0000              DCW      0x0000
                  BackColor
0001a2  ffff              DCW      0xffff
                  DeviceCode
0001a4  0000              DCB      0x00,0x00
